(dp1
S'd101'
p2
(lp3
(lp4
S'Soviet President Mikhail Gorbachev was said to be back in power today and returning to Moscow as the coup against him collapsed and its leaders reportedly fled.'
p5
aS'At his news conference, Gorbachev made a point of publicly praising Yeltsin, whose folk-hero stature was enhanced during the coup as he rallied hundreds of thousands of his supporters to resist.'
p6
aS'Some of the demonstrators chanted, "Down with the Communist Party!"; Yeltsin, who had led the nationwide resistance to the coup, announced a ban on Communist Party activities in the Russian republic, the army, police units of the Interior Ministry and the KGB, which for decades helped enforce Communist rule.'
p7
aS'With the old order of Bolshevik power and ideology in ruins, Soviet leader Mikhail Gorbachev demanded the resignation Friday of his entire government and Russian President Boris Yeltsin shut down Communist Party organizations throughout the vast republic.'
p8
aS"Yeltsin, the triumphant leader of the resistance against this week's military coup, has drastically tipped the balance of power here, showing himself to be at least the political equal, if not the master, of Gorbachev."
p9
aS'In a symbol of the new order, the Russian tricolor, the banner of the anti-coup resistance, flew over the gates of the Kremlin alongside the red Soviet flag for the first time since the rise of the Bolshevik state.'
p10
aa(lp11
S'Soviet President Mikhail Gorbachev was said to be back in power today and returning to Moscow as the coup against him collapsed and its leaders reportedly fled.'
p12
aS'They thought the issue was Mikhail Gorbachev, and apparently believed that by neutralizing Gorbachev and threatening everyone else, they could quickly take charge of the country.'
p13
aS'But the people of the Soviet Union apparently concluded that the real issue was not Gorbachev himself, but the new political culture of freedom and even democracy that his reforms had created.'
p14
aS'With the old order of Bolshevik power and ideology in ruins, Soviet leader Mikhail Gorbachev demanded the resignation Friday of his entire government and Russian President Boris Yeltsin shut down Communist Party organizations throughout the vast republic.'
p15
aS"Yeltsin, the triumphant leader of the resistance against this week's military coup, has drastically tipped the balance of power here, showing himself to be at least the political equal, if not the master, of Gorbachev."
p16
aS'In a joint appearance with Gorbachev in the Russian parliament, broadcast live on Soviet television, Yeltsin made it clear that the Soviet president can maintain a semblance of authority only if he agrees to share power and intensify the march toward a democratic political system and a market economy.'
p17
aasS'd100'
p18
(lp19
(lp20
S"A biography that portrays John Lennon as a drug-addled, anorexic bisexual who raged his way from Liverpool to New York City is ``totally fiction,'' Yoko Ono said in a national radio broadcast."
p21
aS'Lennon was murdered outside his Upper West Side home on Dec. 8, 1980, by Mark David Chapman.'
p22
aS"The 50th anniversary of John Lennon's birth was observed with a global celebration today as his peace anthem ``Imagine'' was played for an estimated 1 billion people in 130 nations."
p23
aS"None of the other Beatles were at the United Nations, but a tribute came from Lennon's old songwriting partner, Paul McCartney, who released a live version of the Beatles' tune ``Birthday''."
p24
aS'Dozens of fans of rock legend and former Beatle John Lennon gathered in the snow on a windy Saturday for a ceremony marking the 10th anniversary of his death.'
p25
aS'Marketing an icon; Since his death in 1980, Ono has steadily kept Lennon products coming out: the albums "Milk and Honey" and "Menlove Avenue" and the 4-CD boxed set "The John Lennon Collection"; the book "Skywriting by Word of Mouth," a collection of Lennon\'s unpublished writings; Lennon\'s art, which Ono says was his main interest in his final years; and Lennon-inspired merchandise, such as a line of John Lennon eyeglasses.'
p26
aa(lp27
S'Lennon was born Oct. 9, 1940.'
p28
aS'The Beatles were raised in Liverpool and got their start in the Merseyside bars.'
p29
aS'Baird disagrees with other biographies which say that after his father decamped and Julia turned her son over to her sister, Mimi, Lennon was a grim youth who felt abandoned by his mother.'
p30
aS'In 1966, Ono and Lennon met.'
p31
aS'He too was married and had a child, Julian.'
p32
aS'Ono and Lennon were married in 1970.'
p33
aS"As for Ono, Goldman shows her as a gold-digger who snorted heroin up to the time of Lennon's death."
p34
aS'Some say she controlled him.'
p35
aS"Still, the group already seemed headed toward a break-up, which finally came when McCartney sued the other Beatles to resolve an argument over the group's management."
p36
aS"A biography that portrays John Lennon as a drug-addled, anorexic bisexual who raged his way from Liverpool to New York City is ``totally fiction,'' Yoko Ono said in a national radio broadcast."
p37
aS"Between 1976 and 1979, Goldman writes, Lennon ``could not be more remote''."
p38
aS'But in 1980, he suddenly felt inspired again and planned to return to the studio to make an album with his wife, Yoko Ono.'
p39
aS'He was shot and killed outside his Manhattan apartment on Dec. 8, 1980.'
p40
aS'Their son Sean, 13, like his older half-brother, Julian, has become interested in music and started playing guitar.'
p41
aasS'd103'
p42
(lp43
(lp44
S'Friendly, Hostile Countries Send Aid To Iran'
p45
aS'The earthquake that devastated Iran early Thursday took tens of thousands of lives because people were asleep in fragile homes built on flood plains, an earthquake expert said.'
p46
aS'Needham said most structures in that area are built of a ceramic-type brick or adobe that collapses easily.'
p47
aS'The shock wave traveled through the mountainous section of coastal Iran where most of the buildings are built on a flood plain of loosely deposited soil that shifts in an earthquake and allows structures to collapse, he said.'
p48
aS"The 7.7-magnitude quake was the largest ever recorded in that area, where two major plates of the earth's crust meet, Needhams said."
p49
aS"The estimated 50,000 dead in the Iran earthquake make it the world's fourth deadliest quake in the past half- century."
p50
aS'Iranian officials have said they would welcome aid from all countries except Israel and South Africa .'
p51
aS"Countries worldwide, both friendly and hostile to Tehran's Islamic government, sent supplies, medical personnel and condolences to Iran, where about 40,000 people have died in an earthquake."
p52
aS"Writer Salman Rushdie, who has been sentenced to die by Iranian zealots, has donated $8,600 to victims of last week's devastating earthquake in Iran."
p53
aa(lp54
S'The earthquake that devastated Iran early Thursday took tens of thousands of lives because people were asleep in fragile homes built on flood plains, an earthquake expert said.'
p55
aS'The earthquake that struck northern Iran brought reminders of another quake that devastated Soviet Armenia in 1988.'
p56
aS"The Armenian quake was measured at 6.9 on the Richter scale, but Thursday's earthquake shook the earth with a magnitude of 7.7 according to the U.S."
p57
aS"The estimated 50,000 dead in the Iran earthquake make it the world's fourth deadliest quake in the past half-century."
p58
aS'Iranian officials have said they would welcome aid from all countries except Israel and South Africa .'
p59
aS'The State Department said Friday that Iran was willing to accept earthquake relief from the American Red Cross and other U.S. humanitarian organizations .'
p60
aS"An anti-American newspaper in Iran said Sunday the United States is partly to blame for the death of tens of thousands of people in last week's earthquake."
p61
aS'The official Soviet news agency Tass reported that a professional lifesaving team from the Armenian capital of Yerevan flew Saturday to Iran.'
p62
aS'Pope John Paul II was "very saddened" by the earthquake and has donated personal funds to help victims of the disaster, the Vatican said .'
p63
aasS'd102'
p64
(lp65
(lp66
S'Miss Ball, born 60 miles south of Buffalo in Jamestown on Aug. 6, 1911, grew up in nearby Celoron, a rural hamlet on Chautauqua Lake.'
p67
aS'Playing the ingenue lead in the 1940 musical "Too Many Girls," Miss Ball met rumba singer Arnaz, cast as a Cuban football player.'
p68
aS'Exchanging vows seven months later, the pair began what was for the most part a troubled marriage.'
p69
aS"1951 _ They form Desilu Productions with $5,000 and ``I Love Lucy'' begins its historic six-year domination of television comedy."
p70
aS'Miss Ball died of a ruptured aorta at Cedars-Sinai Medical Center in Los Angeles Wednesday morning, hospital officials said.'
p71
aS'She was 77.'
p72
aS'An outpouring of sympathy from presidents to childhood neighbors followed the death of Lucille Ball, but many said the queen mother of comedy will live on through television reruns and her influence on comedy.'
p73
aS'"Her red hair, her antics on the screen, her timing and her zest for life made her an American institution," former President and Nancy Reagan said in a statement.'
p74
aS'In addition to her 13 Emmy nominations (she won four), Miss Ball was feted in 1976 with a nostalgic television tribute saluting the 25th anniversary of "I Love Lucy".'
p75
aa(lp76
S"Lucille Ball, whose death Wednesday morning at the age of 77 will be the most widely and deeply felt show-business loss in recent memory, was the movies' greatest gift to television ."
p77
aS"From her star-struck childhood through her struggles as a wisecracking movie actress in the 1930s and '40s to the television career that made her a legend, Miss Ball's life was in the best show business tradition of rags to riches ."
p78
aS'In all, she appeared in more than 75 movies.'
p79
aS"Miss Ball and her late former husband, Desi Arnaz, starred in ``I Love Lucy'' from 1951 to 1957 and have been seen since in widely syndicated reruns."
p80
aS"She and Arnaz established one of TV's first major independent studios ."
p81
aS'Presidents, famous actors, television executives, neighbors and tourists all had their memories.'
p82
aS"They all said they loved Lucy, and they'll miss her ."
p83
aS"Thousands of Lucille Ball's fans shed tears for the woman who made them laugh, as three cities held memorial services in which the redheaded comedian was remembered with prayers and applause."
p84
aS"``Bob Hope's Love Affair With Lucy'' will include clips from their movies and TV appearances, plus such guest stars as Betty White, George Burns and Danny Thomas."
p85
aasS'd105'
p86
(lp87
(lp88
S'Ethnic violence killed 148 people and wounded 885 this month in the Central Asian republic of Kirghizia, the official news agency Tass said Wednesday.'
p89
aS'Besides unrest this month in Kirghizia and Uzbekistan, ethnic violence also has been reported in recent years in Georgia, Armenia, Azerbaijan, Kazakhstan and Tadzhikistan .'
p90
aS'Tajikistan was hit most hard.'
p91
aS'The civil war in the Republic claimed the lives of more than 100,000 people, Shabdolov said.'
p92
aS'He said in Moscow on Tuesday that ministry troops had to be used in 13 regions of the Soviet Union because of such outbreaks, Tass said.'
p93
aS"Soviet President Mikhail S. Gorbachev warned the nation Saturday night that the country's growing ethnic strife is endangering its unity as a state as well as threatening his program of political and economic reforms ."
p94
aS'Gorbachev acknowledged that ethnic relations are "wound in a tight knot of contradictions" because of previous Soviet policies, particularly the effort to pull the country\'s 100-plus ethnic groups into a new "Soviet nationality" with a unified culture .'
p95
aS'The international community is starting to look beyond the conflict in the former Yugoslavia, and is becoming increasingly aware of the true magnitude and seriousness of ethnic and political conflicts in the former Soviet Union.'
p96
aa(lp97
S'GORBACHEV SAYS ETHNIC STRIFE IS THREAT TO UNITY'
p98
aS'Ethnic violence killed 148 people and wounded 885 this month in the Central Asian republic of Kirghizia, the official news agency Tass said Wednesday.'
p99
aS'920229'
p100
aS'TROOPS OF the former Soviet Union were ordered to pull out from the Armenian enclave of Nagorno-Karabakh yesterday after they were fired on during clashes between Azeri and Armenian militants.'
p101
aS'920306'
p102
aS'A CEASEFIRE in Moldova was threatened yesterday when a truck driver transporting militiamen was shot dead by machinegun fire in the self-proclaimed Trans Dnestr republic, home of the Russian-speaking minority.'
p103
aS'920715'
p104
aS"RUSSIA and Georgia yesterday deployed 'blue helmet' troops to stop ethnic fighting in the disputed region of South Ossetia in the first peace-keeping operation since the collapse of the Soviet Union, Reuter reports from Moscow."
p105
aS'Hundreds have been killed since 1990 in fighting between Georgians and Ossetians.'
p106
aS'The Caucasus mountains, which stretch from southern Russia to the borders of Turkey and Iran, are engulfed by several conflicts.'
p107
aS'The international community is starting to look beyond the conflict in the former Yugoslavia, and is becoming increasingly aware of the true magnitude and seriousness of ethnic and political conflicts in the former Soviet Union.'
p108
aasS'd104'
p109
(lp110
(lp111
S'Tiananmen Square Resembles Battlefield in Assault on Students'
p112
aS'Dawn broke Sunday over a battle- scarred Tiananmen Square with tanks and rifle-toting troops ruling the vast expanse occupied the day before by students seeking a freer society from their communist rulers.'
p113
aS"Here is a look at key events in the student pro-democracy movement and at events since Sunday's assault by soldiers on protesters in Tiananmen Square:"
p114
aS'April 15 _ Former Communist Party chief Hu Yaobang dies.'
p115
aS'April 18 _ Thousands of students march in Beijing and Shanghai, expressing dissatisfaction with the government and shouting ``Long live Hu Yaobang!'
p116
aS"Long live democracy''!"
p117
aS'May 13 _ About 2,000 students begin a hunger strike in Tiananmen Square.'
p118
aS'May 18 _ About 1 million people, including many workers, again take to the streets to show their support for the hunger strikers.'
p119
aS'June 3-4 _ Tens of thousands of troops make several attempts to move on the square but are driven back by crowds of hundreds of thousands of people supporting the students.'
p120
aS'A final push is made the evening of June 3, and soldiers begin firing on crowds.'
p121
aS'May 13 _ About 2,000 students begin a hunger strike in Tiananmen Square.'
p122
aS'May 18 _ About 1 million people, including many workers, again take to the streets to show their support for the hunger strikers.'
p123
aS'June 3-4 _ Tens of thousands of troops make several attempts to move on the square but are driven back by crowds of hundreds of thousands of people supporting the students.'
p124
aS'A final push is made the evening of June 3, and soldiers begin firing on crowds.'
p125
aS'Hundreds are killed and thousands wounded.'
p126
aS'June 5 _ Soldiers terrorize Beijing with random shooting of unarmed civilians.'
p127
aS'Chorus of condemnation from around the world.'
p128
aa(lp129
S'Chinese troops stormed Tiananmen Square early Sunday, shooting and beating their way through crowds of pro- democracy protesters in clashes that witnesses and doctors said killed at least 32 people.'
p130
aS'The assault came two weeks after Premier Li Peng declared martial law in Beijing and sent troops to the city.'
p131
aS'The standoff between troops and protesters had been tense but largely peaceful for weeks, with soldiers seemingly reluctant or unable to move against the crowds until the first widespread violence broke out Saturday afternoon.'
p132
aS'Troops surround and enter the square June 4 in the early morning hours and thousands of protesters flee.'
p133
aS'Nearly all of the deaths and injuries occurred Saturday night and early Sunday when troops, firing randomly into large crowds, smashed through barricades to reach Tiananmen square and attack demonstrators demanding democratic reforms.'
p134
aS"Tanks moved into place on what had hours earlier been a rag-tag squatter's camp of tents for the pro-democracy students."
p135
aS'Demonstraters in Shanghai, Nanjing and other major Chinese cities protest the slaughter in Beijing.'
p136
aS'U.S. announces suspension of all military sales and visits of Chinese military leaders, but stops short of severing diplomatic ties.'
p137
aS'Other nations urge their citizens to leave Beijing .'
p138
aasS'd107'
p139
(lp140
(lp141
S'The crippling drought hitting North America is expected to reduce world grain stocks to levels that may cause food shortages in many poor countries, the U.N.'
p142
aS'Weather forecasters today were offering drought-stricken farmers little prospect of relief in separate outlooks for the next 30 days and three months.'
p143
aS'That puts the current drought on the same level as the one in 1911, but still less severe than the droughts of 1936, 1931, 1956 and 1934 .'
p144
aS"Even with the severe drought, there will be an adequate supply of food grains and livestock feed grains so that the United States ``will be able to take care of our domestic needs and our export demand,'' he said."
p145
aS'The drought may force the government to ease crop acreage controls next year to help the United States rebuild its grain inventories, says Agriculture Secretary Richard E. Lyng.'
p146
aS"Heavy rain deluged some drought-hit areas as Congress began working on a package of relief for America's farmers, and farmers in Kentucky today greeted the arrival of the first shipment of hay airlifted free from Oregon."
p147
aS'In central Ohio, farmers awaited what will be the largest haylift of the season _ 50 truckloads of hay from the South scheduled to arrive Thursday night in Columbus .'
p148
aa(lp149
S'The crippling drought hitting North America is expected to reduce world grain stocks to levels that may cause food shortages in many poor countries, the U.N.'
p150
aS"But the United States ``will continue to be a major player'' in world agriculture and in 1989 ``should be able to bounce back'' from this year's drought losses, he said."
p151
aS'United Parcel Service plans to ship free of charge 20 to 30 tons of hay from Portland to Louisville each day for the next two weeks.'
p152
aS'At least 50 truckloads of hay gathered from the Carolinas and Virginia are being shipped to Ohio on Thursday in a drive organized by the Charlotte Motor Speedway and the National Association for Stock Car Auto Racing.'
p153
aS'Extremely heavy rain fell Tuesday in sections of Texas, Louisiana, Oklahoma and Arkansas.'
p154
aS'The drought may force the government to ease crop acreage controls next year to help the United States rebuild its grain inventories, says Agriculture Secretary Richard E. Lyng.'
p155
aS'In Washington, the House and Senate Agriculture committees began working on wide-ranging legislation that would provide payments of up to $100,000 each to farmers whose crops have been wiped out by the dry spell.'
p156
aS'To Be Hot, Dry Until Mid- August, Weather Service Says'
p157
aS'Experts: Public Interest In Climate May Dry Up After Drought'
p158
aasS'd106'
p159
(lp160
(lp161
S"ONE MAN'S STRUGGLE"
p162
aS'From behind bars, Nelson Mandela has dominated the fight for black rights in South Africa.'
p163
aS'The following are some of the key events in his life .'
p164
aS"Mandela joins the African National Congress at age 26, later becoming president of the group's Youth League."
p165
aS"When the National Party comes to power in 1948, the ANC begins planning a campaign of civil disobedience to fight the party's apartheid policy ."
p166
aS'April-June, 1964'
p167
aS'Mandela and seven others are sentenced to life in prison .'
p168
aS'December, 1989'
p169
aS'President Frederik W. de Klerk meets Mandela for the first time .'
p170
aS"World leaders welcomed South Africa's announcement Saturday of Nelson R."
p171
aS"Mandela's impending release from prison, and international rejoicing began to build for an event so long awaited by so many ."
p172
aS'Soweto and other black townships around Johannesburg have been hit by black factional fighting that has killed about 800 people since August.'
p173
aS'In the 15 months since he walked free from prison, Nelson Mandela has played the chief role in talks with President F.W. de Klerk and the white government.'
p174
aS"The radicals in the ANC may well use the trial and conviction of Mrs. Mandela to arouse members against Nelson Mandela's policy of peace and negotiation."
p175
aa(lp176
S'Mandela the 70-year-old leader of the ANC jailed 27 years ago, was sentenced to life in prison for conspiring to overthrow the South African government.'
p177
aS'Mandela was allowed to meet last Friday with five other ANC members convicted with him in 1964 of trying to overthrow the government and still imprisoned in Cape Town, according to Dullah Omar, a family friend and attorney.'
p178
aS'President Pieter W. Botha offers to free Mandela if he renounces violence; Mandela refuses until the government takes steps to dismantle apartheid and grants full political rights to blacks .'
p179
aS'De Klerk lifts ANC ban and says Mandela will be released.'
p180
aS"Commonwealth Secretary General Shridath Ramphal said Mandela's safety must be guaranteed by the South African government and that until change there becomes irreversible, the Commonwealth will sustain its pressure for the end of apartheid."
p181
aS'The arrival Wednesday of African National Congress leader Nelson Mandela prompted an outpouring of praise and encouragement from politicians and supporters.'
p182
aS'In the 15 months since he walked free from prison, Nelson Mandela has played the chief role in talks with President F.W. de Klerk and the white government.'
p183
aS'Mandela and other ANC leaders have been negotiating with President F.W. de Klerk to pave the way for full-scale talks on ending apartheid, the South African system of racial separation.'
p184
aasS'd109'
p185
(lp186
(lp187
S'19 Jun 1994'
p188
aS'Floods hit Guangdong, Guangxi, Hunan, Jiangxi, Fujiang and Zhejiang provinces following the first heavy rains and floods which typically hit China from the south to the north from June to August.'
p189
aS'[Governor] This year, Hunan has been hit by a flood of a severity unseen for the past 100 years in terms of both water level and quantity.'
p190
aS'So far, more than 500,000 soldiers and local residents have moved in to help fight the floods.'
p191
aS'22 Jun 1994'
p192
aS'Among nine cities and prefectures in Fujian, those seriously hit by the flood are Sanming, Nanping, Ningde, Fuzhou, Quanzhou and Putian.'
p193
aS'BFN [Text] Comrade Wen Jiabao [member of CPC Central Committee Secretariat] and his party left Changsha for Zhuzhou and Xiangtan yesterday.'
p194
aS'After listening to reports submitted by the two cities on their efforts to fight the flooding and do relief work, he issued important instructions.'
p195
aS"BFN [Text] Guangzhou, June 23 (XINHUA) -- The highest flood peaks on the Xijiang and Beijiang Rivers have passed, said Zhu Senlin, governor of south China's Guangdong Province."
p196
aS'Over 200 Dead, 11 Million Affected by Guangdong Flood'
p197
aS'24 Jun 1994'
p198
aS'Wen Jiabao Inspects Flood Situation in Jiangxi'
p199
aS'Jiangxi is a major agricultural province.'
p200
aa(lp201
S"BFN [Text] Guangzhou, June 23 (XINHUA) -- The highest flood peaks on the Xijiang and Beijiang Rivers have passed, said Zhu Senlin, governor of south China's Guangdong Province."
p202
aS'More than 200 people lost their lives in the natural disaster, which destroyed 189,000 rooms and ruined crops on 1.2 million hectares.'
p203
aS'The direct economic losses were set at 10.2 billion yuan.'
p204
aS'BFN [Text] Beijing, June 26 (XINHUA) -- Floods have all receded along Xijiang, Beijiang, Xiangjiang and Ganjiang except at a section of the Xijiang River in Wuzhou city, Guangxi, a spokesman from the State Flood Control and Drought Relief Headquarters announced today.'
p205
aS'Floods hit Guangdong, Guangxi, Hunan, Jiangxi, Fujiang and Zhejiang provinces following the first heavy rains and floods which typically hit China from the south to the north from June to August.'
p206
aS'While inspecting flood control and relief work in Jiangxi Province, through which the Ganjiang flows, Wen Jiabao, alternate member of the Political Bureau and member of the Secretariat of the CPC Central Committee, said the flooded areas should work hard to mitigate losses through their own efforts and with support from various departments.'
p207
aS'Jiangxi is a major agricultural province.'
p208
aasS'd108'
p209
(lp210
(lp211
S"Diplomats say Iraq has 100,000 troops on Kuwait's border; Kuwait army numbers about 20,000 troops."
p212
aS'Talks in Jidda collapse .'
p213
aS'TROOPS SEIZE CAPITAL, PALACE; EMIR FLEES;'
p214
aS'200 KUWAITIS SAID KILLED OR INJURED; U.S.'
p215
aS'Kuwaiti refugees have also reported that almost all government buildings and palaces have been blown up and destroyed, Saud said.'
p216
aS"July 18: Iraq accuses Kuwait of stealing $2.4 billion worth of oil from wells along disputed border with Iraq and seeking to wreck Iraq's economy by overproducing oil and pushing down prices."
p217
aS"Kuwait's U.S. ambassador said the nation had asked for American military intervention."
p218
aS'A Pentagon source said a U.S. naval group was diverted toward the Persian Gulf.'
p219
aS'Security Council on Monday voted to impose broad economic sanctions against Iraq for invading small oil-rich Kuwait.'
p220
aS'IRAQIS SEIZE WESTERNERS;'
p221
aS'HUNDREDS ROUNDED UP DURING SWEEP OF KUWAIT HOTELS;'
p222
aS'In addition, a Kuwaiti businessman said about 1,000 people a day were fleeing Kuwait through the desert to Saudi Arabia.'
p223
aS'Iranian editorial writers are rejoicing now that the world is waking up to one of their most hated bogeymen: Iraqi President Saddam Hussein.'
p224
aS'Wholesale oil prices soared to five-year highs in New York on Monday.'
p225
aS'INVADERS TAKING OVER LIVES, HOMES OF KUWAITIS, AMBASSADOR CHARGES'
p226
aa(lp227
S'July 17: Iraqi President Saddam Hussein accuses Kuwait and the United Arab Emirates of flooding the oil market and driving prices down .'
p228
aS'July 26: OPEC ministers in Geneva agree to halt overproduction in hopes of pushing up the price of crude oil.'
p229
aS'Map, IRAQI INVASION OF KUWAIT: Iraqi troops and tanks swept into Kuwait late Wednesday night and within hours had taken control of Kuwait City, the capital and only sizable town.'
p230
aS"Diplomats say Iraq has 100,000 troops on Kuwait's border; Kuwait army numbers about 20,000 troops ."
p231
aS"Kuwait's army was no match for Iraq, battle-hardened after eight years of war with Iran ."
p232
aS'TROOPS SEIZE CAPITAL, PALACE; EMIR FLEES;'
p233
aS'200 KUWAITIS SAID KILLED OR INJURED; U.S.'
p234
aS'AID SOUGHT'
p235
aS'IRAQIS SEIZE WESTERNERS;'
p236
aS'HUNDREDS ROUNDED UP DURING SWEEP OF KUWAIT HOTELS;'
p237
aS'INVADERS TAKING OVER LIVES, HOMES OF KUWAITIS, AMBASSADOR CHARGES'
p238
aS'In addition, a Kuwaiti businessman said about 1,000 people a day were fleeing Kuwait through the desert to Saudi Arabia.'
p239
aS"_ President Bush, who said his advisers would ``consider all possible options available to us.''"
p240
aS'Security Council voted 14-0 to condemn the invasion.'
p241
aS'Wholesale oil prices soared to five- year highs in New York on Monday.'
p242
aasS'd062'
p243
(lp244
(lp245
S'THE BAY AREA QUAKE;'
p246
aS'In the aftermath of the California earthquake, President Bush and his aides flew into a whirlwind of earthquake- related activity yesterday morning.'
p247
aS'Some of it was necessary to get federal help flowing to victims, but some seemed designed mostly to project an image of a White House in action.'
p248
aS"With Congress already moving to grant up to $3 billion in relief, earthquake victims need to know that state officials are prepared to come up with the state's share of disaster and reconstruction aid as soon as possible, and as soon as is practical."
p249
aS'Roads and bridges in the Bay area appear to have suffered some of the most costly damage.'
p250
aS'In the Bay Area, that includes hundreds of thousands of commuters who did not suffer personal damage, but face massive obstacles in getting to work .'
p251
aS"He is estimating this week's disaster will generate insured losses of $2 billion to $4 billion, following about $4 billion in costs to insurers from Hurricane Hugo ."
p252
aS"The organization estimated residential damages from Tuesday's earthquake at $500 million in the Bay area, with between $100 million to $150 million insured."
p253
aa(lp254
S'In the aftermath of the California earthquake, President Bush and his aides flew into a whirlwind of earthquake- related activity yesterday morning.'
p255
aS'Some of it was necessary to get federal help flowing to victims, but some seemed designed mostly to project an image of a White House in action.'
p256
aS"Gov. George Deukmejian is right to call the Legislature into special session within the next two weeks to deal with the effects of last Tuesday's Northern California earthquake."
p257
aS"Most San Francisco-area homeowners may have to pay for damage from Tuesday's earthquake out of their own pockets, while insurance companies may reap long-term benefits from higher rates, industry spokesmen and analysts said Wednesday."
p258
aS'The Association of California Insurance Cos. in Sacramento said that in the San Francisco area roughly 25 to 30 percent of the homes have earthquake insurance.'
p259
aS'Some estimated that insurers might face bills totaling $1 billion or more from the quake.'
p260
aS"But industry observers said they don't expect any company to suffer serious financial damage from quake-related claims."
p261
aS'But investors are betting that the financial and psychological impact of the earthquake, coming so soon after the hurricane, will help stem more than two years of intense price- cutting wars among business insurers.'
p262
aasS'd063'
p263
(lp264
(lp265
S'An explosion today flattened a military barracks and tore through nearby homes, killing 11 people and injuring 22, police said.'
p266
aS'The blast occurred at at 8:26 a.m. in a lounge in the barracks near Deal, about 70 miles southeast of London, the Defense Ministry said.'
p267
aS'Dozens of homes near the school were damaged, including four that were destroyed.'
p268
aS'The IRA claimed responsibility for the blast.'
p269
aS"Defense Secretary Tom King, inspecting the wreckage, said: ``It is not yet absolutely confirmed that it is a bomb, but all the evidence is quite clearly that this is an IRA atrocity''."
p270
aS"Friday's attack was the worst on the mainland since the virtually simultaneous bombings of July, 1982, directed at ceremonial military units in London's Hyde Park and Regent's Park."
p271
aS'Prime Minister Charles Haughey of Ireland condemned the attack and sent Mrs. Thatcher a message of sympathy at ``this outrage ...'
p272
aS'Residents of the area adjoining the Marines school said Friday that despite government calls for stepped-up public alertness against terrorists, security at the school had eased noticeably.'
p273
aS'The Royal Marines Music School is one of 30 military establishments in Britain that use private security firms, Defense Ministry figures show.'
p274
aa(lp275
S'The Irish Republican Army claimed responsibility for a huge explosion Friday that reduced a three-story military barracks on the southeast coast of England to rubble, killing 10 people and injuring 22, eight seriously.'
p276
aS'The IRA bombing that killed 10 men and blew apart a building at the Royal Marines Music School outraged Britons and stirred recriminations over safety standards at the school.'
p277
aS'Dozens of homes near the school were damaged, including four that were destroyed.'
p278
aS'Jean Cleatheroe, whose son Andrew was killed, joined local residents and opposition politicians in denouncing the use of private security firms to protect the music school and 29 other military establishments in Britain.'
p279
aS"A statement telephoned to Ireland International, a Dublin news agency, said ``we have visited the Royal Marines in Kent'' in response to Prime Minister Margaret Thatcher's visit to Northern Ireland nine days ago."
p280
aS"It was an apparent reference to her speech praising the locally recruited Ulster Defense Regiment as ``a very, very brave group of men'' who have lost 179 members in IRA attacks since 1970."
p281
aS"The authorities have been on high alert, expecting IRA attacks in connection with last month's 20th anniversary of the introduction of British troops into Northern Ireland."
p282
aasS'd061'
p283
(lp284
(lp285
S'Tropical Storm Gilbert formed in the eastern Caribbean and strengthened into a hurricane Saturday night.'
p286
aS'Gilbert reached Jamaica after skirting southern Puerto Rico, Haiti and the Dominican Republic.'
p287
aS'Hurricane Gilbert, one of the strongest storms ever, slammed into the Yucatan Peninsula Wednesday and leveled thatched homes, tore off roofs, uprooted trees and cut off the Caribbean resorts of Cancun and Cozumel.'
p288
aS'The Mexican National Weather Service reported winds gusting as high as 218 mph earlier Wednesday with sustained winds of 179 mph.'
p289
aS'More than 120,000 people on the northeast Yucatan coast were evacuated, the Yucatan state government said.'
p290
aS'Shelters had little or no food, water or blankets and power was out.'
p291
aS'The storm killed 19 people in Jamaica and five in the Dominican Republic before moving west to Mexico.'
p292
aS"Prime Minister Edward Seaga of Jamaica said Wednesday the storm destroyed an estimated 100,000 of Jamaica's 500,000 homes when it throttled the island Monday."
p293
aS'The National Hurricane Center said a hurricane watch was in effect on the Texas coast from Brownsville to Port Arthur and along the coast of northeast Mexico from Tampico north.'
p294
aS'The National Hurricane Center said Gilbert was the most intense storm on record in terms of barometric pressure.'
p295
aa(lp296
S'Tropical Storm Gilbert formed in the eastern Caribbean and strengthened into a hurricane Saturday night.'
p297
aS'Hurricane Gilbert slammed into Kingston on Monday with torrential rains and 115 mph winds that ripped roofs off homes and buildings, uprooted trees and downed power lines.'
p298
aS'The storm killed 19 people in Jamaica and five in the Dominican Republic before moving west to Mexico.'
p299
aS"The Jamaican Embassy reported earlier that 500,000 of the nation's 2.3 million people were homeless."
p300
aS'Gilbert also buffeted the Cayman Islands, but no deaths were reported .'
p301
aS'Hurricane Gilbert, one of the strongest storms ever, slammed into the Yucatan Peninsula Wednesday and leveled thatched homes, tore off roofs, uprooted trees and cut off the Caribbean resorts of Cancun and Cozumel.'
p302
aS'The storm was about 550 miles southeast of Brownsville, Texas, the center said in a statement.'
p303
aS'The National Hurricane Center said Gilbert was the most intense storm on record in terms of barometric pressure.'
p304
aS'Earlier Wednesday Gilbert was classified as a Category 5 storm, the strongest ad deadliest type of hurricane.'
p305
aS"Hurricane Gilbert's growth from a harmless low pressure zone off Africa to a ferocious killer in the Gulf of Mexico was fueled by a combination of heat, moisture and wind that baffles forecasters."
p306
aasS'd066'
p307
(lp308
(lp309
S'SAM WALTON was arguably the most important retailer of his generation.'
p310
aS'The seeds of the Wal-Mart empire were sown when Sam and his brother James L., or Bud, opened the first Wal-Mart Discount City in 1962.'
p311
aS'Paying unexpected calls on stores is one way Walton has kept in close touch with everyday goings-on.'
p312
aS"By 1991 the chain's sales had risen to nearly Dollars 44bn, making it the world's largest retailer in terms of revenues, and the Walton family probably America's richest."
p313
aS"The chain's success stemmed both from Mr Walton's personality and willingness to challenge accepted retailing orthodoxy."
p314
aS'When Walton first made the Forbes list of richest Americans, recalled Little Rock investment banker Warren Simpson, calls came in from all over about the billionaire from the Ozarks.'
p315
aS"One of the most sensitive subjects for Walton is the fortune he's amassed."
p316
aS"One strength the authors identify is Wal-Mart's ability to copy and adapt from other retailers."
p317
aS'Walton learned from them all, but was unique in taking his discount stores into small towns of a few thousand people, where shoppers used to travelling long distances were delighted to have a cut- price store nearby selling everything they needed.'
p318
aa(lp319
S'SAM WALTON was arguably the most important retailer of his generation.'
p320
aS"The church-going son of a farmer born in 1918 near Kingfisher, Oklahoma, he founded a store chain which made him America's richest man, and which, shortly before his death in 1992, became the world's biggest retailer."
p321
aS'Folksy was an understatement.'
p322
aS'Paying unexpected calls on stores is one way Walton has kept in close touch with everyday goings-on.'
p323
aS"The chain's success stemmed both from Mr Walton's personality and willingness to challenge accepted retailing orthodoxy."
p324
aS"But perhaps the most fundamental reason for its success, the book suggests, has been Wal-Mart's streamlined and highly responsive management structure."
p325
aS"Wal-Mart Stores Inc.'s Visitors Center opens Wednesday in the same building on the downtown square where Walton first opened for business on May 9, 1950."
p326
aS'MADE IN AMERICA: MY STORY By Sam Walton Doubleday, Dollars 22.50. 269 pages Being an American folk hero is a tricky assignment, as Ross Perot found out.'
p327
aS"'WAL-MART: A HISTORY OF SAM WALTON'S RETAIL PHENOMENON' by Sandra S. Vance and Roy V. Scott Twayne Publishers, New York, Dollars 14.95 240 pages Many people might be said to be the personification of the American Dream; few are better qualified for that title than Sam Walton."
p328
aasS'd067'
p329
(lp330
(lp331
S'FT 26 AUG 92 / Hurricane damage put at Dollars 20bn as 2m people told to leave homes'
p332
aS'DAMAGE CAUSED by Hurricane Andrew could rise to Dollars 20bn, it was estimated yesterday, as one of the costliest US storms this century threatened a further devastating landfall near the city of New Orleans.'
p333
aS'The hurricane tore through southern Florida early on Monday morning, causing billions of dollars of property damage and at least 12 deaths, and yesterday was moving north-west across the Gulf of Mexico with winds of about 140 miles an hour.'
p334
aS'Across Florida, some 2m people remained without electric ity yesterday and health officials were warning the public to boil or chemically treat all water.'
p335
aS'Official estimates in Miami reported that the hurricane had wiped out the homes of one Dade County resident in eight - a quarter of a million people.'
p336
aS'The government estimated it would cost Dollars 20bn-Dollars 30bn to tidy and rebuild in Florida, and to care for residents displaced by the storm.'
p337
aS'HURRICANE Andrew, claimed to be the costliest natural disaster in US history, yesterday smashed its way through the state of Louisiana, inflicting severe damage on rural communities but narrowly missing the low-lying city of New Orleans.'
p338
aa(lp339
S'WHILE Hurricane Andrew was wreaking havoc across large parts of southern Florida and Louisiana this week, a grade two dollar crisis (on a one-to-four scale, four being most severe) was blowing itself out at the end of a tumultuous few days for US and world financial markets.'
p340
aS'In Florida, Andrew caused greatest havoc in a largely suburban swathe some 10-15 miles south of Miami.'
p341
aS'The town of Homestead, near the centre of the storm, was largely flattened, including a local air force base.'
p342
aS'HURRICANE Andrew, claimed to be the costliest natural disaster in US history, yesterday smashed its way through the state of Louisiana, inflicting severe damage on rural communities but narrowly missing the low-lying city of New Orleans.'
p343
aS'By yesterday afternoon, it had been down- graded to tropical storm, in that its sustained windspeeds were below 75 mph.'
p344
aS"GENERAL ACCIDENT, the leading British insurer, said yesterday that insurance claims arising from Hurricane Andrew could 'cost it as much as Dollars 40m'."
p345
aS'The brunt of insurance claims from the Florida storm will fall on the US industry, and companies with a heavy local exposure include the State Farm Group and the Allstate Insurance unit of Sears Roebuck.'
p346
aasS'd064'
p347
(lp348
(lp349
S"The next East European McDonad's is scheduled to be opened in Budapest, Hungary, by the end of this year, said Vesna Milosevic, another Genex official."
p350
aS'BELGRADE, Yugoslavia (AP)'
p351
aS"The communist world gets its first McDonald's next week, and some people here are wondering whether its American hamburgers will be as popular as the local fast-food treat, Pljeskavica."
p352
aS"The next East European McDonald's is MOSCOW (AP)"
p353
aS"The world's largest version of the landmark American fast-food chain rang up 30,000 meals on 27 cash registers, breaking the opening-day record for McDonald's worldwide, officials said."
p354
aS'SHENZHEN, China (AP)'
p355
aS"McDonald's hamburgers, fries and golden arches came to China on Monday when the fast-food chain opened its first restaurant in a nation famed for its distinctive cuisine."
p356
aS"McDonald's hopes to open a restaurant in Beijing later."
p357
aS'MOSCOW'
p358
aS"Opening the second McDonald's restaurant in Moscow, along with a 12-storey office block, Mr George Cohon, head of McDonald's Canada, could well be described as the Russian authorities' idea of a model investor."
p359
aS'SEOUL'
p360
aS'Seven years after the U.S. hamburger giant first tried to bring its Big Macs to South Korea, the golden arches were finally going up.'
p361
aS"South Korea may be one of McDonald's most promising foreign markets, business analysts say."
p362
aa(lp363
S"The communist world gets its first McDonald's next week, and some people here are wondering whether its American hamburgers will be as popular as the local fast-food treat, Pljeskavica."
p364
aS"Thousands of queue-hardened Soviets on Wednesday cheerfully lined up to get a taste of ``gamburgers,'' ``chizburgers'' and ``Filay-o-feesh'' sandwiches as McDonald's opened in the land of Lenin for the first time."
p365
aS'The world\'s largest McDonald\'s, with 27 cash registers and a seating capacity of 900, brings to Moscow not only hamburgers, french fries and shakes (called "milk cocktails" here), but also a living lesson in Western-style marketing .'
p366
aS'Soviet farmers, who are supplying most of the products, have been given special training and disease-resistant seed for potatoes and cucumbers .'
p367
aS"McDonald's hamburgers, fries and golden arches came to China on Monday when the fast-food chain opened its first restaurant in a nation famed for its distinctive cuisine."
p368
aS'Most of the ingredients used at the restaurant are now imported from Hong Kong.'
p369
aS'Seven years after the U.S. hamburger giant first tried to bring its Big Macs to South Korea, the golden arches were finally going up.'
p370
aS"McDonald's struggled with the government over McAhn's royalty payments to the U.S. partner -- the issue was resolved -- and over tight import restrictions on food products."
p371
aasS'd065'
p372
(lp373
(lp374
S'The Quayle family and friends were celebrating Tuesday afternoon after George Bush announced he wants the 41-year-old Indiana senator to be the Republican nominee for vice president.'
p375
aS'Dan Quayle has not yet been nominated for vice president and already Republicans are comparing him to Thomas Jefferson and John F. Kennedy.'
p376
aS"Sen. Bob Dole of Kansas, who placed Quayle's name in nomination, stressed his campaign skills and sought to deflect concerns that he lacked experience for the job."
p377
aS'Encumbered by his image as a political novice who needed a bevy of professional handlers to survive early campaign controversies, Quayle enters a Bush administration in which he has few intimates or allies.'
p378
aS'Democrats portrayed Quayle during the campaign as a lightweight, a man with little or no legislative accomplishments, untested and unqualified to be a heartbeat away from the presidency.'
p379
aS"Quayle didn't help his case by making a number of celebrated gaffes during the campaign, perhaps the worst being his garbled explanation of the Holocaust and his declaration, ``I didn't live in this century''."
p380
aS'Relegated in the campaign to small towns and safe GOP areas, Quayle as vice president is likely to be given a traditional ceremonial role _ going to political gatherings and state funerals _ rather than the advisory role that Walter Mondale and even Bush had, some scholars feel.'
p381
aa(lp382
S"Bush's surprise choice for his running mate was supposed to ignite a campaign that has seemed at times to suffer from lack of inspiration, but he quickly encountered questions over his military record and suggestions he could best serve the Republicans by withdrawing from the ticket."
p383
aS'Democrats portrayed Quayle during the campaign as a lightweight, a man with little or no legislative accomplishments, untested and unqualified to be a heartbeat away from the presidency.'
p384
aS'His every slip, his every gaffe, his every goof was news .'
p385
aS'And Bush\'s announcement that Quayle would be his running mate again was Bush\'s way of saying: "I didn\'t screw up the first time.'
p386
aS'During his entire campaign for the vice presidency, Quayle refused all requests from such national interview shows.'
p387
aS"Dan Quayle, who grew up in Huntington, graduated from DePauw University, a small liberal arts college in Greencastle, Ind., before going to work in the Indiana attorney general's office in 1970."
p388
aS'Dan and Marilyn Quayle met as law students in Indianapolis, married while they were still in school and remain close to many of their friends from that period.'
p389
aS"``He's already spent 12 years as a congressman and senator."
p390
aS'The couple, who married in 1972, have a 14-year-old son, Tucker; a 12-year-old son, Benjamin; and a 9-year-old daughter, Corinne.'
p391
aasS'd068'
p392
(lp393
(lp394
S'Famous Allied Checkpoint Dividing East And West Berlin Removed'
p395
aS'Checkpoint Charlie, the Berlin Wall border post that symbolized the Cold War, was hoisted into history today .'
p396
aS'With the wall being dismantled daily in anticipation of German unification, U.S. officials decided to remove Checkpoint Charlie with a grand flourish.'
p397
aS'Secretary of State James A. Baker III, Soviet Foreign Minister Eduard Shevardnadze and their counterparts from France, Britain and the two Germanys presided over the ceremony.'
p398
aS'The ceremony was closed to the public but not to the residents of the buildings that line Friedrich Street, which had been divided by the Berlin Wall since 1961.'
p399
aS'Baker, Soviet Foreign Minister Eduard Shevardnadze and the foreign ministers from France, Britain and the two Germanys each heralded the end of the checkpoint as a symbol of change.'
p400
aS'The Soviet Union said today that a united Germany can join NATO after a five-year transition period during which all Soviet and U.S. troops would leave the country.'
p401
aS'The proposal was outlined by Soviet Foreign Minister Eduard Shevardnadze during international talks in East Berlin on the strategic future of a united Germany.'
p402
aS'A U.S. official, speaking on condition of anonymity, said U.S. officials objected to the five-year time limit before Germany could join NATO.'
p403
aa(lp404
S'Checkpoint Charlie, the famed Allied border crossing on the west side of the Berlin Wall, was lifted into the sky by a giant crane Friday, placed gently onto a flatbed truck and consigned to history.'
p405
aS'As a brass band played and foreign ministers of the four World War II allies watched, a crane lifted the prefabricated hut with its American, British and French flags and placed it on a flatbed truck to be taken to a museum .'
p406
aS'The border crossing was the scene of stirring escapes and heartbreaking captures as East Germans tried flee to the West, breaking through East German control stations just 20 yards away from the Allied checkpoint.'
p407
aS'Secretary of State James A. Baker III, Soviet Foreign Minister Eduard Shevardnadze and their counterparts from France, Britain and the two Germanys presided over the ceremony.'
p408
aS'Shevardnadze, the first Soviet foreign minister to visit West Berlin, noted that the checkpoint was vanishing on the 49th anniversary of the Nazi invasion of the Soviet Union .'
p409
aS'Former West German Chancellor Willy Brandt, who emotionally challenged the building of the wall as mayor of West Berlin in the early 1960s, was in the front row of an invited audience .'
p410
aasS'd069'
p411
(lp412
(lp413
S'The mass emigration of thousands of disaffected East Germans has rekindled reunification talk in West Germany, where some legislators plan to begin exploring the possiblity of reuniting the two Germanys.'
p414
aS'It is a prospect that creates unease in Britain and France, and in Poland in the East bloc.'
p415
aS"Once dismissed as a nostalgic daydream, the idea of German reunification has gotten a public nod from President Bush and something short of a categorical ``no'' from President Mikhail S. Gorbachev of the Soviet Union."
p416
aS'Since West Germany and East Germany are at the front lines of two competing alliances, any signs for eventual reunification would have to come from Washington and Moscow.'
p417
aS'Modrow said the two Germanys could work toward confederation in phases with no time limit.'
p418
aS"Earlier Saturday, West German Finance Minister Theo Waigel said the East German economy was in a ``sorrowful state'' and urged the East German government to release details on its financial situation."
p419
aS"``The world is expecting a Jewish statement on reunification,'' said Edgar Bronfman, the president of the World Jewish Congress."
p420
aS'West German Chancellor Helmut Kohl declared on his return from Moscow on Sunday that "the way is now free" for German reunification .'
p421
aa(lp422
S'The lifting of travel restrictions by East Germany on Thursday has breathed new life into the idea of a single German state, drawing expressions of support from the Bush administration and others.'
p423
aS"The daily sight of thousands of refugees fleeing East German leader Erich Honecker's hard-line Communist rule for the capitalist West has revived international interest in the debate."
p424
aS"The Communist Party today admitted that East Germany's socialist system has failed, and expressed support for a type of partnership with West Germany."
p425
aS'President Mikhail S. Gorbachev met Tuesday with East German Premier Hans Modrow and appeared to be more open toward eventual German reunification.'
p426
aS'According to Tass, the Soviet leader said any action on reunification must not infringe on the interests of either East or West Germany, the four Allied powers: France, Britain, the United States or the Soviet Union, or anyone else in Europe.'
p427
aS'For the most part, the historians say an East Germany collapsing into chaos represents a greater threat to stability than a united German state.'
p428
aS'Asked how soon the two Germanys could merge, Kohl declared that the March election has to come first, and "then I think it will all go very quickly" .'
p429
aasS'd120'
p430
(lp431
(lp432
S'John Major, who was endorsed by Prime Minister Margaret Thatcher as her successor and heir, was elected today as leader of the Conservative Party and will become prime minister .'
p433
aS"Major, 47, her chancellor of the Exchequer, is the youngest person to be elected Britain's prime minister since the 19th Century ."
p434
aS'Major, 47, fell two votes short of winning a majority in voting among the 372 Coservative Party members of Parliament, but his two opponents quickly conceded defeat and the party confirmed Major as the winner.'
p435
aS'The past 12 months have been hijacked by internal party differences over Europe, by the debacle surrounding UK withdrawal from the exchange rates mechanism of the European Monetary System, and by a continuing, deep recession which has disappointed and alienated many traditional Tory supporters in business.'
p436
aS'For a long time, John Major has failed to resolve the economic crisis and has seriously jeopardized the interests of British people, who have become poorer with each passing day and suffer from a high rate of unemployment.'
p437
aS"There is a general perception that, important though Britain's future place in Europe is, the prime minister has been excessively preoccupied with community affairs and associated internal party ructions, to the detriment of the domestic economy."
p438
aa(lp439
S'John Major, endorsed by Margaret Thatcher as the politician closest to her heart, was elected by the Conservative Party Tuesday night to succeed her as prime minister.'
p440
aS"While adopting a gentler tone on the contentious issue of Britain's involvement in Europe, he shares her opposition to a single European currency and shares her belief in tight restraint on government spending."
p441
aS"FT 08 APR 93 / John Major's Year: Major's blue period - A year on from success at the polls, the prime minister's popularity has plunged."
p442
aS'The past 12 months have been hijacked by internal party differences over Europe, by the debacle surrounding UK withdrawal from the exchange rates mechanism of the European Monetary System, and by a continuing, deep recession which has disappointed and alienated many traditional Tory supporters in business.'
p443
aS'Its Leader"] [Text] In local government elections across Britain yesterday, the Conservatives suffered their worst defeat ever, losing control of 17 regional councils and 444 seats.'
p444
aS"Even before all of the results were known, some Tories openly announced their determination to challenge John Major's position and remove him from office as early as possible."
p445
aasS'd093'
p446
(lp447
(lp448
S'Overcrowding and safety violations caused an aging ferry to capsize in the Ganges River, killing as many as 400 people, a government report said.'
p449
aS'More than 100 people were feared drowned after an overcrowded ferry sank at a river junction in southern Bangladesh, police said today.'
p450
aS'An overloaded ferry taking schoolchildren on a field trip capsized and sank in southern China, killing 55 people and leaving seven missing, the China News Service said in a dispatch seen Sunday.'
p451
aS'A passenger ferry sank off the Caribbean coast while being towed to port, and 59 people drowned and six are missing, authorities and news reports said today.'
p452
aS"Officials said 46 people survived the sinking of the ferry Justo Rufino Barrios II in Amatique Bay on Guatemala's east coast Sunday."
p453
aS'The Israeli ferry Tuvia capsized shortly after midnight on Saturday, throwing more than 100 men into the cold waters of Haifa Bay.'
p454
aS'A boat carrying hundreds of Somali refugees struck a reef off Kenya and sank, killing more than 130 people, newspapers reported.'
p455
aS'U.S.'
p456
aS'Navy aircraft joined the search today for survivors of the ferry sinking that left 471 people missing in shark-infested Red Sea waters but found nothing but empty life rafts and debris.'
p457
aa(lp458
S'Overcrowding and safety violations caused an aging ferry to capsize in the Ganges River, killing as many as 400 people, a government report said.'
p459
aS'More than 100 people were feared drowned after an overcrowded ferry sank at a river junction in southern Bangladesh, police said today.'
p460
aS'An overloaded ferry taking schoolchildren on a field trip capsized and sank in southern China, killing 55 people and leaving seven missing, the China News Service said in a dispatch seen Sunday.'
p461
aS"Authorities charged a 22-year- old ferry captain with negligent homicide after the boat, overcrowded with New Year's travelers, sank off the Caribbean coast."
p462
aS'Sixty-seven people drowned and 14 were missing.'
p463
aS'The Israeli ferry Tuvia capsized shortly after midnight on Saturday, throwing more than 100 men into the cold waters of Haifa Bay.'
p464
aS'At least 19 sailors drowned, and scores were injured.'
p465
aS'The sailors were part of the multinational force arrayed against Iraq.'
p466
aS'A boat carrying hundreds of Somali refugees struck a reef off Kenya and sank, killing more than 130 people, newspapers reported.'
p467
aS"The engineer of a ferry that sank off this Red Sea port, leaving more than 400 people missing, today denied accusations of widespread negligence on the part of the ship's crew."
p468
aasS'd092'
p469
(lp470
(lp471
S'Tons of Relief Supplies Arriving, But Distribution Difficult'
p472
aS'The earthquake that devastated Iran early Thursday took tens of thousands of lives because people were asleep in fragile homes built on flood plains, an earthquake expert said.'
p473
aS'The shock wave traveled through the mountainous section of coastal Iran where most of the buildings are built on a flood plain of loosely deposited soil that shifts in an earthquake and allows structures to collapse, he said.'
p474
aS"The 7.7-magnitude quake was the largest ever recorded in that area, where two major plates of the earth's crust meet, Needhams said."
p475
aS'Estimates of the number killed Iran reportedly said it would accept aid from all countries -- including Iraq -- but excluded Israel and South Africa .'
p476
aS'Planes loaded with food, medicine and tents are converging on earthquake-stricken Iran from around the world, among them the first private American relief mission to the country in more than a decade.'
p477
aS'The shipment that arrived Sunday was the first of its kind to be accepted by Iran since the hostage crisis of 1979- 80, when 52 Americans were held at the U.S.'
p478
aa(lp479
S'The earthquake that devastated Iran early Thursday took tens of thousands of lives because people were asleep in fragile homes built on flood plains, an earthquake expert said.'
p480
aS"The 7.7-magnitude quake was the largest ever recorded in that area, where two major plates of the earth's crust meet, Needhams said."
p481
aS'Gobadi said the country cannot properly assist earthquake victims because its treasury has been spent in a war with neighboring Iraq and against internal opposition.'
p482
aS'Iran said today that it would welcome relief offered by its bitter enemy, the United States, to help victims of the earthquake that has killed as many as 35,000 people, the State Department said in Washington .'
p483
aS'State Department officials said the government gave $300,000 worth of supplies to the American Red Cross for shipment to Iran -- including 1,000 hard hats, 1,000 pairs of leather gloves, 10,000 face masks, 2,940 wool blankets and about 500 tents .'
p484
aS"Orange County's Iranian community launched an ambitious effort Sunday to collect half a million dollars in money, medicine, tents, blankets and sleeping bags for hundreds of thousands of injured and homeless people in earthquake-ravaged Iran ."
p485
aS'Estimates of the number killed in the devastating quake reached 50,000, with an additional 200,000 injured .'
p486
aasS'd091'
p487
(lp488
(lp489
S'Thunderstorms swept through central and eastern Ohio, causing flooding that killed at least ten people, left dozens missing and forced hundreds of others from their homes, officials said today.'
p490
aS'Two creeks just outside this Ohio River village of 4,300 people overflowed when about 4 inches of rain fell Thursday night in about an hour.'
p491
aS'The raging waters knocked homes off their foundations and washed away a bar filled with people in Shadyside, an Appalachian Mountain foothill town.'
p492
aS'The friend, 9-year-old Amber Colvin, was swept down Wegee Creek and into the Ohio River, but survived a seven-mile ordeal by clinging to logs.Amber was released from a hospital Saturday after treatment for minor injuries.'
p493
aS'The death toll from flash floods that swept through a rural area of eastern Ohio rose to 20 Sunday as searchers dug along two creeks and dived into the Ohio River.'
p494
aS"Workers used shovels and picks to dig along the creek banks, and sifted through debris at places marked with red flags, where search dogs indicated they'd detected human scents, said National Guard Capt. Jim Boling."
p495
aS'The Federal Emergency Management Agency said it will open an office Tuesday in Shadyside to accept applications from residents for low-interest loans and grants to help them rebuild.'
p496
aS'Most of those whose homes and belongings were swept away by the wall of water will have to put their lives back together largely without benefit of insurance.'
p497
aa(lp498
S"Thursday night's thunderstorms caused flash flooding across a wide area of central and eastern Ohio, northern West Virginia and western Pennsylvania."
p499
aS'But no place was hit with anything approaching the ferocity of the flooding in Shadyside.'
p500
aS'About 35 buildings, including a tavern, were damaged along Wegee Creek, and 50 buildings were hit by a flood along Pipe Creek, four miles south of Wegee Creek, said Dick Quinlin, Belmont County emergency services coordinator.'
p501
aS"``The valleys are choked with debris,'' Gov. Richard Celeste told reporters after flying over the hilly Appalachian region in eastern Ohio."
p502
aS"``A wall of water wiped a path through the area''."
p503
aS'One resident, Robert Ramsey, said his wife, Rose, was crushed to death in their house by the water.'
p504
aS"The death toll from last week's flash floods mounted to 21 today when a body was found in the Ohio River, and authorities said there was little hope for the 14 people still listed as missing."
p505
aS"The National Weather Service issued no flood warning before the disaster, although it did issue a flood watch, said Al Wheeler, deputy meteorologist in the bureau's Cleveland office."
p506
aasS'd090'
p507
(lp508
(lp509
S'Handling of the controversy highlighted all the inconsistencies for which Mrs. Aquino has been criticized: lack of clear priorities; tactical blundering; and the strong influence of her relatives over national policy.'
p510
aS'President Corazon Aquino said today she will not allow Ferdinand Marcos to come home to die and her government will not permit the ousted president to be buried on Philippine soil.'
p511
aS"Mrs. Aquino said the Philippines' debt was projected to increase to $29 billion by year's end but that much was money that ``was in fact stolen by the previous government'' of ousted dictator Ferdinand Marcos."
p512
aS'As a military coup attempt unfolded in their homeland 7,000 miles away, supporters of the rebellious soldiers engaged in a shouting match Thursday night with supporters of President Corazon Aquino at the Philippine Consulate in Los Angeles .'
p513
aS'President Corazon Aquino today reversed a long-held policy and said she was willing to negotiate cease-fires with Communist guerrillas and former soldiers who have staged coup attempts.'
p514
aS"The quick collapse of a bizarre military revolt on the Philippines' second-largest island leaves President Corazon Aquino's beleaguered government with a muddied victory at best and clear danger signs ahead ."
p515
aa(lp516
S'President Corazon Aquino has agreed to allow Ferdinand Marcos to return to the Philippines so that the government can try him on charges of stealing billions of dollars, newspapers said Saturday.'
p517
aS'President Corazon Aquino said today she will not allow Ferdinand Marcos to come home to die and her government will not permit the ousted president to be buried on Philippine soil.'
p518
aS"Aquino evidently is concerned that even after death, the return of Marcos' remains could spark violence or galvanize opposition to her government ."
p519
aS'Marcos was reported in critical condition today in a Honolulu hospital after undergoing emergency kidney surgery.'
p520
aS'President Corazon Aquino today reversed a long-held policy and said she was willing to negotiate cease-fires with Communist guerrillas and former soldiers who have staged coup attempts.'
p521
aS'Aquino has now survived two major coup attempts and half a dozen assorted and aborted military mutinies.'
p522
aS'After 332 witnesses, 226 sworn statements and 4,100 documents, the so-called Davide Commission concluded that coup attempts are likely to continue -- but unlikely to succeed -- for the indefinite future .'
p523
aasS'd097'
p524
(lp525
(lp526
S'Killer Storm Hits South Carolina Coast'
p527
aS'Hurricane Hugo struck South Carolina with renewed fury Thursday after thousands of coastal residents in southeastern states grabbed what they could carry and fled inland on jammed highways.'
p528
aS"Pinpointing the exact point of Hugo's landfall was difficult, but forecasters said Friday that the landfall was predicted in time for evacuation."
p529
aS"The storm, which caused billions in damage, claimed 17 lives in South Carolina, and only two were in the Charleston area, which bore the brunt of Hugo's 135 mph winds."
p530
aS'Mr. Ruoff at Fred S. James believes that even if losses from Hugo total as much as $5 billion, insurers won\'t feel enough "financial pain, such as not being able to pay shareholder dividends," to compel them to boost premium rates right away.'
p531
aS'As a way of repaying a kindness dating to 1778, Kingston is raising money to help Charleston, S.C., recover.'
p532
aS"After Kingston, then New York's capital, was burned in October 1777 by the British, New York Gov. George Clinton received a letter from South Carolina Gov. Abraham Livingston."
p533
aS'The letter included nearly 1,000 New York pounds to help Kingston residents get through their crisis.'
p534
aa(lp535
S'Hurricane Hugo struck South Carolina with renewed fury Thursday after thousands of coastal residents in southeastern states grabbed what they could carry and fled inland on jammed highways.'
p536
aS"The storm, which caused billions in damage, claimed 17 lives in South Carolina, and only two were in the Charleston area, which bore the brunt of Hugo's 135 mph winds."
p537
aS"Pinpointing the exact point of Hugo's landfall was difficult, but forecasters said Friday that the landfall was predicted in time for evacuation."
p538
aS"Residents took forecasters at their word when they warned of Hurricane Hugo's fury, and the low number of deaths from the powerful storm can be credited to this healthy respect, authorities said."
p539
aS'State Farm Insurance Co. expects claims as high as $400 million in South Carolina, where it insures one out of every five homes, spokesman Jerry Parsons said.'
p540
aS'Additionally, Nationwide Insurance Co. said it expects claims close to $100 million, more than triple the $31 million that the company paid for damages caused by Hurricane Elena when it swept through Florida, Alabama and Mississippi in 1985 .'
p541
aS'Such heavy losses suggest that the storm will be the most expensive ever for the insurance industry .'
p542
aasS'd096'
p543
(lp544
(lp545
S'In a dramatic finish, the San Francisco 49ers football team won the Super Bowl on Sunday with a 20-16 victory over the <s docid="AP891117-0248" num="10" wdcount="38"> The nation\'s'
p546
aS'two largest brewers, Anheuser Busch Cos. Inc. and Miller Brewing Co., are gearing up to sell their beer with by staging mock football games in television commercials in conjunction with Super Bowl XXIV in New Orleans.</s>'
p547
aS'docid="AP900130-0113" num="10" wdcount="22"> The San Francisco 49ers\' 55-10 rout of the Denver Broncos was the lowest-rated Super Bowl in 21 years and the third- <s docid="SJMN91-06025282" num="30" wdcount="44"> In Tampa, Super'
p548
aS'Bowl XXV brought about the cancellation of what was the biggest annual event in the city for 86 years: the Gasparilla Parade, an extravaganza that featured 500 of the city\'s most powerful men swaggering through the streets dressed as gun- <s docid="SJMN91-06025282" num="35" wdcount="22"> The Super Bowl'
p549
aS'Task Force had to scramble to put together a new parade, and Carley became the <s docid="SJMN91-06025282" num="36" wdcount="15">'
p550
aS'SUPER BOWL XXVI; Super Bowl XXVI will be played Jan. 26, 1992, in the <s docid="LA020890-0197" num="10" wdcount="35"> The Los Angeles Sports'
p551
aS'Council, in a bid to bring Super Bowl XXVII to the Rose Bowl in 1993, will offer the stadium to the National Football League rent-free in a proposal next Monday .'
p552
aa(lp553
S'Sports Illustrated is taking 300 advertisers to Super Bowl XXI in Pasadena, Calif., this weekend for an all-out bash.'
p554
aS"And the companies show few signs of cutting back on their activities despite the new tax law's tighter restrictions on what can be claimed as a business-entertainment expense."
p555
aS'"Even if it weren\'t tax deductible, it\'d be worth it," says Tom Foley, chairman of Bibb Co., a Macon, Ga., maker of home furnishings and textile products that use the National Football League team logos.'
p556
aS'The Los Angeles Sports Council, in a bid to bring Super Bowl XXVII to the Rose Bowl in 1993, will offer the stadium to the National Football League rent-free in a proposal next Monday .'
p557
aS'Hotels, restaurants and other businesses are anticipating an estimated $125 million in revenues, with a total economic impact of $200 million.'
p558
aS'"It\'s more than a window into a town," said Jim Steeg, director of special events for the NFL.'
p559
aS'"It\'s a bay window."; Last month, NFL Commissioner Paul Tagliabue said he would stand by his recommendation to move the 1993 Super Bowl out of Tempe, Ariz., because the state does not have a holiday honoring Dr. Martin Luther King.'
p560
aasS'd095'
p561
(lp562
(lp563
S'Patrick E. Purdy purchased an AK-47 rifle in this Portland suburb several months ago, then returned to his hometown of Stockton, Calif., where he used the gun to kill five children and wound 29 others, along with a teacher, at Cleveland Elementary School before taking his own life, authorities said.'
p564
aS'The 26-year-old drifter with a long criminal record who launched a mute, murderous assault on a California elementary school Tuesday was described by his aunt as a loner and childhood alcoholic, police said.'
p565
aS"Cleveland School is in the heart of California's third-largest community of refugees from Southeast Asia, and nearly two-thirds of the school's population is from Asia."
p566
aS'All of the dead children were from refugee families, as were 19 of the 29 wounded.'
p567
aS"City officials readied the city's Civic Auditorium for a Monday memorial ceremony for the families and friends of a Vietnamese student and four Cambodian pupils gunned down in the playground at Cleveland Elementary School Tuesday by armed drifter Patrick Edward Purdy, who killed himself with a single pistol shot to the head ."
p568
aS'Purdy was buried Friday in nearby Lodi, said his grandmother, Julia Chumbley.'
p569
aS'People attending that service were asked to follow a Southeast Asian cultural tradition and wear black-and-white ribbons.'
p570
aa(lp571
S'Police said a drifter identified as Patrick Edward Purdy, 26, armed with two handguns and an AK-47 assault rifle, entered the school grounds around noontime Tuesday and fired about 60 rounds before he shot himself to death.'
p572
aS'Within hours of the schoolyard shootings that left five children and the gunman dead and 30 wounded Tuesday, dozens of translators rushed to assist the many Southeast Asian parents who arrived at the hospital desperate for word of their youngsters.'
p573
aS'All of the dead children were from refugee families, as were 19 of the 29 wounded.'
p574
aS'CHILDHOOD: Described by aunt as child alcoholic and loner.'
p575
aS"EDUCATION: Records indicate a Patrick Edward Purdy attended Cleveland Elementary School, scene of Tuesday's shooting, through third grade, from 1969 to 1973."
p576
aS'Dropped out of high school.'
p577
aS'When arrested, was carrying a book about the white supremicist group Aryan Nations.'
p578
aS'A South Carolina school where a gunman killed two 8-year-old girls Sept. 26 will send cards and offer words of encouragement to a California school that lost five pupils in a shooting rampage.'
p579
aS"Gov. George Deukmejian was to attend Monday's services."
p580
aS"The state-supported agency will provide up to $2,800 for each funeral and up to $46,000 for hospital and counseling expenses for victims and relatives, said Diane Beatrice, a spokeswoman for the county district attorney's office ."
p581
aasS'd094'
p582
(lp583
(lp584
S"World leaders from President Reagan to Malaysia's king mourned today's death of Emperor Hirohito, who surrendered a broken nation to the Allies in World War II but presided over its rise to economic pre-eminence."
p585
aS'TOKYO (AP _ Emperor Hirohito will be remembered for one overwhelming decision during his 62-year reign: Japan must bow to defeat for the first time in its history and end the Pacific conflict in World War II.'
p586
aS"World leaders sent Japan messages of condolences and some declared states of mourning after Emperor Hirohito's death Saturday, but painful memories of World War II still generated criticism of the Japanese monarch."
p587
aS'At the surrender of the Imperial Japanese government, Hirohito was spared punishment because "it was his ambitious military generals who made the decision to invade the neighbors" .'
p588
aS'It was a choice that enabled Hirohito to remain as the symbolic head of his nation and assured that he would not face charges as a war criminal, as some abroad had demanded.'
p589
aS"The documentary says the decision not to prosecute Hirohito came from President Harry S. Truman and that Tojo's evidence was altered so the emperor would not be incriminated ."
p590
aa(lp591
S'Hirohito died of cancer on Jan. 7 at age 87.'
p592
aS'TOKYO (AP _ Emperor Hirohito will be remembered for one overwhelming decision during his 62-year reign: Japan must bow to defeat for the first time in its history and end the Pacific conflict in World War II.'
p593
aS"World leaders sent Japan messages of condolences and some declared states of mourning after Emperor Hirohito's death Saturday, but painful memories of World War II still generated criticism of the Japanese monarch."
p594
aS"Reaction to Hirohito's death at age 87, however, was decidedly cool in several Asian countries, including South Korea, which endured years of harsh colonial rule by Japan."
p595
aS"The BBC will show ``Hirohito _ Behind the Myth'' on Jan. 24."
p596
aS"The documentary challenges Hirohito's image as a peaceful man forced to go along with his generals' plans and alleges among other things that he: _Must have known about the massacre of at least 20,000 Chinese at Nanking in 1937 because he received regular detailed reports from the China front."
p597
aS"The documentary says the decision not to prosecute Hirohito came from President Harry S. Truman and that Tojo's evidence was altered so the emperor would not be incriminated ."
p598
aasS'd099'
p599
(lp600
(lp601
S'The city that invented the corporate-sponsored Olympics has created a marathon unlike others -- artfully dressed as an Olympic-type amateur race, but built from the ground up to make money for the closely held company that controls it - - as well as for the city.'
p602
aS'03/26/91'
p603
aS'A two-time winner in Boston (1935 and 1945) and runner-up seven times, Mr. Kelley is to be the oldest competitor in the race this year -- as he has been for 15 years.'
p604
aS'The last three Boston marathons have turned into reckless speed duels.'
p605
aS"They have produced five of the top 10 times and eight of the top 15 in the race's storied history."
p606
aS'Most top-ranked U.S. women are looking for any summer-time marathon in which to run and the San Francisco version offers excellent conditions.'
p607
aS'TO MOST PEOPLE, marathons and vacations are mutually exclusive.'
p608
aS'But a unique subset has formed: people who like to do both at the same time.'
p609
aS'And to help these folks along, companies arrange tours for marathon vacations.'
p610
aS"Run in high heat, high humidity, high pollution levels and over an extraordinary course, the Barcelona Olympic men's marathon will prove one of the most physically demanding ever run."
p611
aa(lp612
S'Television watchers of the 19th annual New York City Marathon followed the step-by-step progress Sunday of the leaders, but many spectators on the course scanned the thousands of runners for a familar face.'
p613
aS"FT 08 AUG 92 / The Barcelona Olympics: Marathon a 'sell-out to commercialism' - Tomorrow's runners face daunting heat and a wicked finish, just for TV ratings"
p614
aS'The winner of the London marathon earns a tidy Dollars 50,000 and the New York, Boston and Japanese runs are all in the same prize-winning category.'
p615
aS'But the Olympic marathon is an exception: the only top-level marathon that carries no prize money.'
p616
aS'An audience of perhaps a million and a half or more will line the route, drawn in part by advertisements on 75 million Coca-Cola cans and 2,500 billboards around the Los Angeles area.'
p617
aS'SAN DIEGO MARATHON: MARTINEZ, SMITH, RELATIVELY NEW TO LONG-DISTANCE RUNNING, CHRISTEN A NEW COURSE WITH VICTORIES .'
p618
aS'EARLY SPEED MAY TURN BOSTON MARATHON INTO RACE OF ATTRITION'
p619
aS'Most top-ranked U.S. women are looking for any summer-time marathon in which to run and the San Francisco version offers excellent conditions.'
p620
aS"London, the most popular European city to visit, holds the world's largest marathon (April 12 next year)."
p621
aasS'd098'
p622
(lp623
(lp624
S'Space Telescope Opening a Window on the Beginning of Time'
p625
aS'Hubble has been waiting to take its place in space since 1983, delayed by technical problems and the Challenger accident.'
p626
aS'The problem was overcome and the shuttle lifted off at 8:34 a.m. EDT, about three minutes late.'
p627
aS'The observatory is considered the greatest advance in astronomy since Galileo first used a telescope in 1609.'
p628
aS'Hubble also is expected to shed light on how and when the universe might end.'
p629
aS"Discovery's astronauts overcame balky equipment to send the Hubble Space Telescope floating free from the shuttle today on a 15-year quest for secrets of the universe."
p630
aS'The $1.5 billion telescope began orbiting Earth every 97.3 minutes at an altitude of 380 miles _ high above the atmosphere, which has limited the view of ground-based telecopes.'
p631
aS'The $1.5 billion telescope was released at 3:38 p.m. EDT as the shuttle entered its 20th orbit of Earth, nearly two hours and one orbit later than planned.'
p632
aS'The Hubble Space Telescope orbited with its big eye open Friday after ground controllers overcame communications problems and lifted its lens cover, but its electronics were shut down due to a malfunction.'
p633
aS'Discovery is to land at 9:48 a.m. EDT Sunday at Edwards Air Force Base, Calif.'
p634
aasS'd116'
p635
(lp636
(lp637
S'The Discovery astronauts triumphantly launched the $1.5-billion Hubble Space Telescope one orbit late today after last-ditch commands from Earth freed a stuck solar panel, narrowly averting a daring emergency spacewalk .'
p638
aS'Discovery was 380 statute miles above Earth, 70 miles higher than any shuttle has ever flown.'
p639
aS"During Hubble's 15-year journey through space, astronomers expect to look back to nearly the beginning of time and solve some of the universe's most perplexing mysteries."
p640
aS'During its 15-year working lifetime, the telescope will provide astronomers with 10 times better resolution and 25 times more sensitivity than ground-based observatories.'
p641
aS'The telescope is named for the late astronomer Edwin P. Hubble, who discovered during the 1920s that the universe is expanding.'
p642
aS'The Hubble Space Telescope was awakened from its self-induced sleep today but it was still without the use of its high-speed antennas, and its science instruments were on hold, unable to begin any observations.'
p643
aS"The telescope's low-gain antennas, which receive and transmit information at a much slower rate and can be used in emergencies, were working well."
p644
aS"Discovery's astronauts, meanwhile, packed their gear for a return to Earth Sunday, made some last-minute observations of Earth and talked with ground-based reporters about their flight."
p645
aa(lp646
S"Discovery's five astronauts returned Sunday for a second attempt to launch the shuttle with NASA's most valuable and celebrated payload, the $1.5 billion Hubble Space Telescope."
p647
aS'The telescope, named for the late astronomer Edwin P. Hubble, will enable astronomers over its 15- year working lifetime to look back 14 billion years and possibly determine the age of the universe.'
p648
aS"NASA expects to launch Columbia with an astronomical observatory called Astro no earlier than May 16, one week later than planned because of Discovery's two-week delay."
p649
aS"Discovery was aiming for an altitude of 380 miles, the highest a shuttle has ever gone, so the telescope can be placed in its proper orbit far above Earth's distorting atmosphere."
p650
aS'Discovery will follow Hubble from 40 miles away for two days until after its lens cap is opened, exposing the finely polished 94.5-inch mirror to starlight.'
p651
aS'NASA estimates it will cost $200 million a year to operate and maintain the telescope in space.'
p652
aS"Mission specialist Steven Hawley released Hubble from the end of the shuttle's 50-foot-long mechanical arm after a delay in getting one of the telescope's solar wings unfurled."
p653
aS'Ground controllers at the Goddard Space Flight Center finally made contact today with the two main antennas on the $1.5 billion Hubble Space Telescope after trying for more than six hours to lock on.'
p654
aasS'd117'
p655
(lp656
(lp657
S"The Booker Prize is Britain's literary event of the year, guaranteed to boost sales of the chosen novel after the award announcement Oct. 16, and dinner in London's ancient Guildhall."
p658
aS"Australian novelist Peter Carey was awarded the coveted Booker Prize for fiction Tuesday night for his love story, ``Oscar and Lucinda''."
p659
aS'It is administered by Book Trust, an educational charity promoting books, and is sponsored by Booker, an international food and farming business .'
p660
aS"Kazuo Ishiguro Wins Britain's Top Literary Prize."
p661
aS"Critic and novelist A.S. Byatt on Tuesday won the Booker Prize, Britain's most prestigious literary award, for her tale of two young scholars investigating the lives of a pair of imaginary Victorian poets."
p662
aS"London's litterati have for weeks been betting on Michael Ondaatje's The English Patient - those of them who have seen a proof copy because it is not officially published until next week."
p663
aS"After hours of heated delib-eration - under a system described as 'mad' by one judge - the Pounds 20,000 Booker Prize for fiction last night went to Mr James Kelman for How Late It Was, How Late, published by Secker and Warburg."
p664
aS"'Moon Tiger': A Dark Horse Takes the Booker --- By Terry Trucco"
p665
aa(lp666
S"The Booker Prize is Britain's literary event of the year, guaranteed to boost sales of the chosen novel after the award announcement Oct. 16, and dinner in London's ancient Guildhall."
p667
aS'It is administered by Book Trust, an educational charity promoting books, and is sponsored by Booker, an international food and farming business .'
p668
aS'British publishers can submit three new novels by British and Commonwealth writers.'
p669
aS'A management committee of authors, booksellers, librarians and the sponsors chooses a jury of five: a writer or two, an academic, a politician interested in literature and a literary editor or critic.'
p670
aS'Each juror reads every book submitted, lists about six favorites and meets the other jurors to select and announce six finalists.'
p671
aS"As public debate rages over who's in, who's out and who might win, with bookmakers across the country calling the odds, the jurors meet again and finally select the winner on the afternoon of announcement day."
p672
aS'Its critics say that the autumn brouhaha distorts the annual fiction industry and the intense media hype of the shortlisted authors does a disservice to the hordes of other gifted but unlisted writers.'
p673
aS'The Booker prize has, in its 26-year history, always provoked controversy.'
p674
aasS'd114'
p675
(lp676
(lp677
S'Kashmir has been a problem for more than four decades following the 1947 partition of British colonial India into predominantly Moslem Pakistan and the mostly Hindu India.'
p678
aS'Moslem militants armed with automatic rifles shot and killed two unarmed paramilitary soldiers on Thursday in Srinagar, the flashpoint of a violent separatist campaign, officials said.'
p679
aS'The most powerful group is the Jammu-Kashmir Liberation Front, but there are several others, including the Allah Tigers, Hezb-e-Mujahed Hezb-e-Islami.'
p680
aS"Srinagar's 800,000 people are moslty Moslem, as is a majority of population in the Kashmir region."
p681
aS'The Jammu region is predominantly Hindu.'
p682
aS'Kashmiri militants had earlier campaigned for union with Pakistan, which claims Kashmir because of its predominant Moslem population, but now they demand independence and the status of a neutral country .'
p683
aS'Meanwhile, the president of the Pakistan state of Kashmir said in an interview Saturday that Kashmiris there had begun smuggling arms across the border to Moslem insurgents fighting for independence from India.'
p684
aS'Relations between Pakistan and India worsened in January when Indian soldiers cracked down on Moslem militants in Kashmir who are seeking independence from India or union with Pakistan.'
p685
aS'At least 792 people have been killed in Kashmir since then.'
p686
aa(lp687
S"Exotic Kashmir, a tourist paradise of houseboat hotels and Mogul gardens from whose name the English made ``cashmere,'' has become a war zone of separatism and religious enmity."
p688
aS'At least 1,034 people have been killed in the Kashmir valley since New Delhi cracked down on the secessionist movement on Jan. 20.'
p689
aS'Jammu-Kashmir is the only state with a Moslem majority in predominantly Hindu India.'
p690
aS'Kashmiri militants had earlier campaigned for union with Pakistan, which claims Kashmir because of its predominant Moslem population, but now they demand independence and the status of a neutral country .'
p691
aS'India has often accused Pakistan of aiding the Kashmiri militants, a charge Pakistan has denied.'
p692
aS'Parts of Kashmir region are claimed by both India and Pakistan.'
p693
aS'Pakistan and Indian twice have gone to war over Kashmir, in 1948 and again in 1965.'
p694
aS"Prime Minister Benazir Bhutto on Thursday accused India of waging ``genocide'' in secession-minded Kashmir and of trying to start a war with Pakistan to deflect attention."
p695
aS'The government today imposed direct federal rule in Kashmir, where Indian security forces are battling to put down a rebellion by Moslem separatists.'
p696
aS'The announcement of federal rule reflected the belief that Jammu-Kashmir state was too unstable to be run by an elected local government.'
p697
aasS'd115'
p698
(lp699
(lp700
S'AP-NR-08-21-88 0234EDT'
p701
aS'At least 758 people died and 950 were injured in both countries Sunday when the earthquake jolted the mountainous India-Nepal border region.'
p702
aS'The earthquake, which struck shortly before daybreak Sunday when most people were still asleep, registered 6.5 on the Richter scale.'
p703
aS'Most of the victims died in their houses, which were made of bricks held together by mud that had loosened during the seasonal monsoon rains.'
p704
aS'Police Inspector G. Adhikari said bulldozers have demolished more than 50 houses deemed too dangerous for habitation.'
p705
aS'Residents in Dharan, the worst-hit area of Nepal, also raced from their homes Wednesday during two aftershocks, officials in Katmandu said.'
p706
aS"In India, the area with the greatest damage and casualties was just south of the border in Bihar, India's poorest state."
p707
aS'AP-NR-08-24-88 1425EDT'
p708
aS'The death toll from the Himalayan earthquake topped 750 on Wednesday as rescue workers hampered by monsoon rains, aftershocks and washed out roads reached remote areas of Nepal and found more bodies.'
p709
aS'Flanigan said the Peace Corps has been able to track down all but three of the 157 volunteers in Nepal.'
p710
aS'Death Toll Rises to 981, Legislator Beaten to Death'
p711
aa(lp712
S'A strong earthquake hit the Himalayan kingdom of Nepal and parts of eastern India on Sunday morning, triggering landslides and collapsing buildings.'
p713
aS'Reports of damage and devastation continued to arrive from remote parts of Nepal on Friday, and the Home Affairs Ministry updated its confirmed death toll to 704.'
p714
aS'In India, the official count rose to 277.'
p715
aS'But survivors, the news media and opposition politicians say the toll could be as high as 1,500.'
p716
aS'The quake, centered almost on the India-Nepal border, registered 6.5 on the Richter scale.'
p717
aS'Both countries were rushing emergency medical teams to the area.'
p718
aS'But the monsoons, which hit the subcontinent in late June and usually last through September, hampered relief operations.'
p719
aS'Dharan, 105 miles southeast of Katmandu, sits on a rolling plain at the base of a steep hill.'
p720
aS'At least 131 bodies have been found in the town of 100,000.'
p721
aS'Most of the victims died in their houses, which were made of bricks held together by mud that had loosened during the seasonal monsoon rains.'
p722
aS'As survivors in both countries began rebuilding homes damaged or destroyed by the quake, medicine, food and financial aid began arriving from abroad.'
p723
aasS'd112'
p724
(lp725
(lp726
S'Robert Maxwell, the flamboyant billionaire who built a global publishing empire, was found dead Tuesday in waters off the Canary Islands, where he had been vacationing on his yacht.'
p727
aS"His death prompted immediate concern in British financial circles about the future of his debt-laden empire and in New York about the future of the Daily News, one of the nation's largest metropolitan papers."
p728
aS'Yet although some banks became alarmed at the implications for the financial health of his empire, they did not discuss their concerns with each other or with authorities such as the Bank of England.'
p729
aS'Kevin Maxwell has been linked to transactions of a pension fund management firm at the center of the controversy over the missing money, investigators say.'
p730
aS'He and brother Ian are under court order to disclose by next week what they know about the affairs of Bishopsgate Investment Management Ltd., one of about 40 companies controlled by their father.'
p731
aS'Two writs have been filed alleging that Goldman Sachs, the US-based investment bank, assisted in diverting Pounds 55m from two pension schemes controlled by Robert Maxwell to ensure its own debts from Maxwell interests would be repaid.'
p732
aa(lp733
S'Robert Maxwell, the flamboyant billionaire who built a global publishing empire, was found dead Tuesday in waters off the Canary Islands, where he had been vacationing on his yacht.'
p734
aS"Details of Maxwell's death are sketchy."
p735
aS"Among Maxwell's assets were the Macmillan publishing house in New York, Britain's No. 2 paper, the Daily Mirror, The Daily Record, and The European and British Printing & Communications Corp., Britain's largest printing company."
p736
aS"Maxwell's sons, Kevin, 32, and Ian, 35, took over running the businesses Tuesday."
p737
aS"Investigators have said Maxwell siphoned money from his companies in a desperate attempt to deal with his empire's crushing debts."
p738
aS'Later last year, Robert Maxwell made many repayments to banks by looting pension fund assets and also carrying out unusual fundraising exercises with US investment banks, from which tens of millions of dollars were borrowed at a high price.'
p739
aS'Kevin Maxwell has been linked to transactions of a pension fund management firm at the center of the controversy over the missing money, investigators say.'
p740
aS'He and brother Ian are under court order to disclose by next week what they know about the affairs of Bishopsgate Investment Management Ltd., one of about 40 companies controlled by their father.'
p741
aasS'd113'
p742
(lp743
(lp744
S"FT 15 MAR 93 / Bombay stays calm in the face of horror: The city seems determined to put Friday's outrage behind it"
p745
aS'The 29-storey Jijobhoy Towers, home of the Bombay Stock Exchange, was rocked by two powerful bombs last Friday, leaving 60 dead and 200 injured.'
p746
aS'The market reopened on Monday in an attempt to return to normal.'
p747
aS'Dealers seemed to like this, the BSE index rising by 5.6 per cent on Monday and Tuesday.'
p748
aS'But another bomb blast in Calcutta triggered nervous selling yesterday, and the index came back by 50.62, or 2.1 per cent, to 2,409.23.'
p749
aS'All this has taken place against a volatile background: the Bombay equity market, over the past six weeks or so, has had to contend first with unusually bullish speculation, before the national budget on February 27, and subsequently with some savage expressions of disappointment.'
p750
aS'The bombs appeared designed to stir a renewal of communal strife and to undermine efforts by the government of Mr PV Narasimha Rao to open up the economy and attract foreign investment and tourism.'
p751
aS'But much more should go to the people of Bombay, who, so far at least, have refused to be goaded into violent protest by the bombers .'
p752
aa(lp753
S'FT 12 MAR 93 / Indian stock market denies flouting rules'
p754
aS"A ROW has erupted between the Bombay stock exchange, India's largest stock market, and the Securities and Exchange Board of India, the securities watchdog, over the board's recent first-ever inspection of stockbrokers' books."
p755
aS'FT 13 MAR 93 / Bombay blasts leave 200 dead: Federal troops flown in after wave of bombings on commercial targets'
p756
aS"The identity of the bombers was unknown, but the attacks were a severe setback to India's attempts to heal the wounds created by recent intercommunal violence, which has caused deep shock throughout India."
p757
aS"FT 15 MAR 93 / Bombay stays calm in the face of horror: The city seems determined to put Friday's outrage behind it"
p758
aS'The market reopened on Monday in an attempt to return to normal.'
p759
aS'It has had to compromise - trading has been restricted to an hour a day, and dealing has moved back to the traditional ring, where it stopped a year ago.'
p760
aS'Dealers seemed to like this, the BSE index rising by 5.6 per cent on Monday and Tuesday.'
p761
aS'But another bomb blast in Calcutta triggered nervous selling yesterday, and the index came back by 50.62, or 2.1 per cent, to 2,409.23.'
p762
aasS'd110'
p763
(lp764
(lp765
S"THE INVASION: Iraq's troops, led by about 350 tanks, crossed the border at dawn Thursday, and seized the Kuwaiti palace and government buildings 40 miles away."
p766
aS'CAUSE OF CONFLICT: President Saddam Hussein of Iraq accused Kuwait of stealing oil from its territory and forcing down oil prices through overproduction.'
p767
aS"Kuwait and U.N. diplomats dismissed Iraq's claim that it invaded at the request of Kuwaiti revolutionaries."
p768
aS"Bush said the United States would ``take whatever steps necessary'' to defend interests in the gulf."
p769
aS"He froze Iraq's assets in the United States and blocked almost all Iraqi imports, including oil."
p770
aS'A Pentagon source said a U.S. naval group was diverted toward the Persian Gulf.'
p771
aS'Saudi Arabia was also one of the 14 members of the 21-member Arab League that condemned the invasion in the same terms as the Gulf Cooperation Council.'
p772
aS'The U.N.'
p773
aS'Security Council today overwhelmingly approved sweeping trade and military sanctions against Iraq, including a ban on oil purchases, to punish Baghdad for invading Kuwait.'
p774
aS'HUNDREDS ROUNDED UP DURING SWEEP OF KUWAIT HOTELS;'
p775
aS"The Iraqi-installed Kuwait government had earlier warned foreign countries that they should not forget their citizens in Kuwait while heaping on economic punishments, and today's roundup appeared to be a reaction against the sanctions ."
p776
aa(lp777
S"Diplomats reported that Iraq had massed 100,000 troops on Kuwait's border."
p778
aS'The Iraq-Kuwait crisis broke out on July 17 when Iraqi President Saddam Hussein accused Kuwait and the United Arab Emirates of driving down oil prices by exceeding quotas set for them by the Organization of Petroleum Exporting Countries.'
p779
aS"Iraq's powerful army claimed victory today in its lightning invasion of this small, oil-rich kingdom."
p780
aS"Kuwait's U.S. ambassador said the Iraqis occupied all government buildings in the capital and were moving south toward the country's oil facilities."
p781
aS'The Iraqi government of President Saddam Hussein claimed it invaded at the request of revolutionaries who had already staged a coup and established Provisional Government of Free Kuwait.'
p782
aS'Security Council overwhelming approved sweeping trade and military sanctions against Iraq to punish it for invading the emirate .'
p783
aS"World oil prices soared to their highest level in more than four years today as more countries joined the attempt to strangle Baghdad's economy and force it to withdraw its invasion troops ."
p784
aS'_A Pentagon source said the aircraft carrier USS Independence, escorted by a six-ship battle group, was diverted from the Indian Ocean toward the gulf, where other U.S. ships were already patrolling.'
p785
aasS'd111'
p786
(lp787
(lp788
S'Greek divers have plunged 162 feet beneath the Aegean Sea and back into history, finding a treasure-laden Turkish warship sunk by Greek revolutionaries in 1822.'
p789
aS'A freighter carrying a cargo of beer sank in the North Sea today off the Dutch coast and all nine crew members were rescued from life rafts, a coast guard spokesman said.'
p790
aS'Interior Minister Karl Blecha, like Gratz a onetime protege of former Chancellor Bruno Kreisky, resigned Jan.19. Blecha and Gratz have denied wrongdoing or aiding Udo Proksch, the prime suspect in the sinking of the ship Lucona in the Indian Ocean.'
p791
aS'Two sailors were missing Monday evening after a 652-foot freighter en route from Greece apparently sank in rough seas 400 miles southeast of Cape Cod.'
p792
aS"During a 90-minute news conference, Ballard described how he his ocean-crawling robot located the Bismarck ``sitting upright and proud'' two weeks ago."
p793
aS'But, as the tragic sinking of the Estonia with the loss of more than 800 lives demonstrates, when they do go down the toll in human life can be high.'
p794
aS"The Korean ship, which had been fishing illegally in Argentine waters, was sunk by its own crew after failing to answer to the Argentine ship's warnings."
p795
aa(lp796
S'Greek divers have plunged 162 feet beneath the Aegean Sea and back into history, finding a treasure-laden Turkish warship sunk by Greek revolutionaries in 1822.'
p797
aS'Leopold Gratz, the president of Parliament and one of the most powerful politicians in the Socialist Party, resigned today over a scandal surrounding the mysterious sinking of ship 12 years ago.'
p798
aS'An Argentine supply ship that ran aground off Antarctica sank Tuesday in heavy seas and high winds, the government said, and there was concern oil in its hold could leak and damage the environment.'
p799
aS'Two sailors were missing Monday evening after a 652-foot freighter en route from Greece apparently sank in rough seas 400 miles southeast of Cape Cod.'
p800
aS"A deep-sea inspection of the Bismarck suggests that the most powerful battleship in Adolf Hitler's navy was scuttled by its own crew rather than sunk by the British in a celebrated battle, underwater explorer Robert D. Ballard said Thursday."
p801
aS"The Korean ship, which had been fishing illegally in Argentine waters, was sunk by its own crew after failing to answer to the Argentine ship's warnings."
p802
aS'But this figure pales into insignificance compared with the 96 general cargo ships and 12 tankers which also went down.'
p803
aasS'd118'
p804
(lp805
(lp806
S'Former Sen. John Tower of Texas and his daughter were among 23 people killed Friday when the twin-engine commuter plane they were aboard crashed while trying to land.'
p807
aS'The Democratic-controlled Senate today rejected the nomination of former Texas Sen. John Tower as defense secretary, delivering a major rebuke to President Bush just 49 days into his term.'
p808
aS"It was only the ninth time in 200 years that the Senate has voted to reject a president's Cabinet choice and the only time it has done so early in a new administration."
p809
aS'Lawmakers from both parties have said they are concerned that there would be a continuing appearance of conflict of interest hanging over Tower because of his employment by weapons firms, which brought him at least $760,000 in 2 1/2 years -- not including the more than $200,000 British Aerospace paid him .'
p810
aS'Tower not only shunned withdrawal; he offered conditions that had to be humiliating, if only the Senate would let him have the job.'
p811
aS'Republicans proposed that he get the job for a six-month trial and then return for reconfirmation, a gimmick that would have changed the system and could have haunted the presidency.'
p812
aa(lp813
S'President-elect Bush designated Tower as his defense secretary on Dec. 16.'
p814
aS"Tower's qualifications for the job -- intelligence, patriotism and past chairmanship of the Armed Services Committee -- the nomination should have sailed through with flying colors."
p815
aS'Instead it sank like the Bismarck.'
p816
aS"In written testimony to the Senate panel on Jan. 26, Tower said he could ``recall no actions in connection with any defense activities'' in connection with his work for the U.S. subsidiary of <s> In the divorce deposition, Tower said he went to work for British Aerospace eight weeks after resigning as the nation's chief strategic arms negotiator and advised the company on how to sell training jets, fighter planes and missile systems to the Pentagon, the Los Angeles Times reported."
p817
aS'Tower has acknowledged that he drank excessively in the 1970s, but says he has reduced his intake to wine with dinner.'
p818
aS'The Democratic-controlled Senate today rejected the nomination of former Texas Sen. John Tower as defense secretary, delivering a major rebuke to President Bush just 49 days into his term.'
p819
aS"The Senate's 53-47 vote came after a bitter and divisive debate focused on Tower's drinking habits, behavior toward women and his business dealings with defense contractors."
p820
aS"CRASH KILLS TOWER, 22 OTHERS EX-SENATOR'S DAUGHTER ALSO AMONG VICTIMS"
p821
aasS'd119'
p822
(lp823
(lp824
S"Gildenhorn, according to Senate sources, is one of several Bush ambassadorial nominees who have been rated ``unqualified'' by the American Academy of Diplomacy, an organization composed of former high ranking diplomats, including all living former secretaries of state."
p825
aS'Other ambassadorial nominees rated as unqualified by the American Academy of Diplomacy include Florida real estate developer Joseph Zappala, nominated as ambassador to Spain; Melvin L. Sembler, a real estate executive in Florida named to be ambassador to Australia; and Della M. Newman, a Seattle, Wash., real estate broker named to be ambassador to New Zealand.'
p826
aS'The Bush administration is expected to name career diplomat Harry Shlaudeman as the first U.S. ambassador to Nicaragua in almost two years, a U.S. official says.'
p827
aS'The choice is James R. Lilley, a career intelligence officer who served as CIA station chief in China when Bush headed the U.S. liaison office there in 1974-75 .'
p828
aS'President Bush has decided to nominate John D. Negroponte, a veteran diplomat who helped direct U.S. aid to Nicaraguan rebels, to the key position of ambassador to Mexico, Administration officials said Thursday .'
p829
aS'WASHINGTON -- President Bush plans to name United Nations Ambassador Thomas Pickering as U.S. envoy to India, and appoint the current head of the foreign service to succeed him.'
p830
aa(lp831
S"The Senate Foreign Relations Committee today endorsed the nomination of Michigan Republican activist Peter F. Secchia as ambassador to Italy, but the panel's chairman said he feared Secchia might ``embarrass the United States'' because of his ``penchant for making gross remarks''."
p832
aS'Twenty of 29 ambassadorial nomination made by Bush in the first six months of his administration have gone to non-professionals, many of them large contributors to Republican causes, committee sources said.'
p833
aS'The appointment of the 66- year-old Hinton, with his long expierience on Latin American issues, is seen as a signal of the importance Bush is placing on restoring normal relations with Panama.'
p834
aS'They said the administration believed a female ambassador could relate better than a man to Mrs. Chamorro, who takes office Wednesday.'
p835
aS'Veteran Diplomat Displaces First Choice for Managua Post'
p836
aS"Amman AL-RA'Y"
p837
aS'Ambassador"] [Text] The new U.S. ambassador to Jordan, Wesley Egan, is a heavyweight.'
p838
aS"Mr. Moynihan's point, in other words, is that these territories are up for grabs."
p839
aS'BUSH REPORTEDLY PICKS EX-CIA OFFICER AS AMBASSADOR TO CHINA'
p840
aS"State Department officials said that they had expected Mexican leftists to register complaints about the appointment because of Negroponte's support of the Contras but that they are confident that Salinas' government will not object formally ."
p841
aasS'd079'
p842
(lp843
(lp844
S"Gilbert, an ``extremely dangerous hurricane'' and one of the strongest storms in history, roared toward Mexico's Yucatan Peninsula Tuesday with 175 mph winds after battering the Dominican Republic, Jamaica and the tiny Cayman Islands."
p845
aS'With the winds of Hurricane Gilbert clocked at 175 miles per hour, U.S. weather officials called Gilbert the most intense hurricane ever recorded in the Western Hemisphere.'
p846
aS'Gilbert is one of only three Category 5 storms in the hemisphere since weather officials began keeping detailed records.'
p847
aS'Hurricane Gilbert battered the resorts of the Yucatan Peninsula today with 160 mph winds and torrential rains.'
p848
aS'The most intense hurricane on record surged toward Texas today after battering the Yucatan Peninsula with 160 mph winds, leveling slums, pummeling posh resorts and forcing tens of thousands to flee.'
p849
aS'The storm, spawned Saturday southeast of Puerto Rico, appeared to have hit Jamaica the hardest.'
p850
aS'Hurricane Gilbert weakened to a tropical storm as it blustered northwestward today but it threw tornadoes and sheets of rain at thousands of shuttered evacuees along the Texas-Mexico border.'
p851
aS'Rains from Hurricane Gilbert sent a river raging over its banks in Monterrey, sweeping at least 10 policemen to their deaths and overturning buses loaded with evacuees from Matamoros, police said today.'
p852
aa(lp853
S'At least 109 people have been killed and more than 800,000 left homeless since Gilbert ripped through the Caribbean with 175 mph wind earlier this week, then crossed the Yucatan Peninsula and Gulf of Mexico before slamming into northeastern Mexico.'
p854
aS"Gilbert, an ``extremely dangerous hurricane'' and one of the strongest storms in history, roared toward Mexico's Yucatan Peninsula Tuesday with 175 mph winds after battering the Dominican Republic, Jamaica and the tiny Cayman Islands."
p855
aS'The center said Hurricane Gilbert was the most intense storm on record in terms of barometric pressure.'
p856
aS'The hurricane, traveling westward across the Caribbean Sea, was upgraded Tuesday to a Category 5, the strongest and deadliest type of hurricane.'
p857
aS'Hurricane Gilbert battered the resorts of the Yucatan Peninsula today with 160 mph winds and torrential rains.'
p858
aS'Hurricane Gilbert weakened to a tropical storm as it blustered northwestward today but it threw tornadoes and sheets of rain at thousands of shuttered evacuees along the Texas-Mexico border.'
p859
aS'Rains from Hurricane Gilbert sent a river raging over its banks in Monterrey, sweeping at least 10 policemen to their deaths and overturning buses loaded with evacuees from Matamoros, police said today.'
p860
aasS'd078'
p861
(lp862
(lp863
S'Last year, the Oscarcast was seen by one billion people in 79 countries.'
p864
aS"``Ben-Hur'' in 1959 was the most-awarded film with 11, and Walt Disney was the most-awarded person with 32 ."
p865
aS'What actress has received the most Oscars?'
p866
aS'Katharine Hepburn, 4.'
p867
aS'The Thalberg award has come in handy to acknowledge giants who were overlooked for individual awards.'
p868
aS"In a lecture and question-and- answer session Monday, Lee shrugged off the academy's icy treatment of his latest movie, ``Do the Right Thing,'' and blamed it on generational politics."
p869
aS'As it was, 10 different movies split 17 awards, the most winners for one year in this decade .'
p870
aS"Given the tremendous impact both an Oscar nomination and an Oscar victory have on a film's fortunes, it's not entirely surprising that a certain degree of artifice might surround the Oscars."
p871
aS'The Academy insists that a contract signed by Oscar winners mandates that they will not sell the trophies without first offering them to the Academy for a nominal fee.'
p872
aS'The Oscar statuette, one of the most recognizable images in the entertainment world, has no copyright protection, a federal judge has ruled.'
p873
aS'The Walt Disney Co. filed suit in Los Angeles federal court Thursday against the Academy of Motion Picture Arts and Sciences, charging copyright infringement of its Snow White character and unfair competition .'
p874
aa(lp875
S"Oscar's 60-year history is filled with examples of the film world's highest achievers being overlooked by the Academy of Motion Picture Arts and Sciences."
p876
aS"The latest casualties are directors James L. Brooks, whose movie ``Broadcast News'' was nominated though he wasn't, and Spielberg who was left out in the cold with his ``Empire of the Sun''."
p877
aS'Oscar selection has come under scrutiny as film studios go to new lengths to pull votes out of the Academy of Motion Picture Arts and Sciences.'
p878
aS'On average, a best picture award is worth about $20 million these days.'
p879
aS'A $500,000 Oscar promotional campaign mounted by a studio, therefore, can be a good investment.'
p880
aS'The Oscar statuette, one of the most recognizable images in the entertainment world, has no copyright protection, a federal judge has ruled.'
p881
aS'The decision was a setback for the Academy of Motion Picture Arts and Sciences, which had sued a Chicago-based manufacturer of an employee-incentive trophy similar to the Oscar.'
p882
aS'The 1988 slate of films was, on total, a marked improvement over recent years.'
p883
aS'Nominees this year represented as wide a range of material as any in years, and they produced more winning films .'
p884
aasS'd075'
p885
(lp886
(lp887
S"Deaths from heart and blood vessel disease dropped 24 percent over the past decade, but it remains by far the nation's biggest killer, taking a life every 32 seconds, the American Heart Association said Sunday."
p888
aS'New treatments that stop a heart attack in its tracks may help victims to get out of the hospital more quickly than ever before, perhaps even three days after their attacks, a study published today concludes.'
p889
aS'A study of more than 22,000 male doctors had shown that taking a single aspirin every other day could cut heart attack risk in half.'
p890
aS'An intestinal operation to lower the cholesterol of heart attack patients reduced their risk for another heart attack or death from heart disease, researchers said today.'
p891
aS'NEW YORK -- An experiment with more than 1,700 high blood pressure patients showed that a blood and urine test can pinpoint those patients most likely to have a heart attack.'
p892
aS'A natural substance called transforming growth factor beta appears to be able to limit damage to cardiac cells following a heart attack, according to a study published in the journal Science.'
p893
aS'However, Weisfeldt, who is president- elect of the heart association, also cautioned that much work remains, both in improving care and encouraging people to take better care of their health.'
p894
aa(lp895
S'The usual cause of heart attacks is a blockage of the coronary arteries, which supply the heart muscle with oxygen- <s docid="AP880829-0222" num="24" wdcount="12"> The blockage arises'
p896
aS'from the buildup of fats, cholesterol and clotted blood.'
p897
aS'Doctors from the University of Michigan Medical Center studied the effects of sending a few carefully selected <s docid="AP880428-0041" num="14" wdcount="21"> Topol'
p898
aS'said the early discharges were made possible by two recent medical advances _ <s docid="AP880428-'
p899
aS'0041" num="15" wdcount="18"> When given quickly after a heart attack, TPA can dissolve clots in the heart\'s arteries and minimize damage.</s>'
p900
aS'docid="AP880428-0041" num="16" wdcount="14"> Angioplasty can produce similar results <s docid="AP880818-'
p901
aS'0088" num="17" wdcount="20"> Diltiazem is a calcium entry blocker, the newest class of drugs to be introduced in the fight against heart disease.</s>'
p902
aS'docid="AP880829-0222" num="12" wdcount="25"> A study of more than 22,000 male doctors had shown that taking a single aspirin every other day could cut heart attack <s docid="AP880829-0222" num="26" wdcount="17"> Aspirin interferes'
p903
aS'with aspects of the clotting process, helping to prevent clot formation in the <s docid="WSJ910418-0105" num="10" wdcount="31"> NEW YORK -- An experiment with'
p904
aS'more than 1,700 high blood pressure patients showed that a blood and urine test can pinpoint those patients most likely to have a heart attack.'
p905
aasS'd074'
p906
(lp907
(lp908
S'SENATE QUESTIONING OF THOMAS ENDS BUSH NOMINEE APPEARS HEADED FOR HIGH COURT'
p909
aS'Several committee members said they expected the committee to recommend, by a 10-4 or 9-5 vote, that the Senate confirm Thomas.'
p910
aS'They accused him of being evasive and of disavowing many controversial statements he made while an official of the Reagan and Bush administrations.'
p911
aS"Several senators were openly skeptical Wednesday over Thomas' insistence that he has no opinion on the 1973 Supreme Court decision legalizing abortion."
p912
aS'At one point, Biden accused Thomas of using "tortuous logic".'
p913
aS'Later, he referred to one of Thomas\' replies as "the most unartful dodge I\'ve heard".'
p914
aS'They see a woman with strong opinions on issues that are bound to come before the court.'
p915
aS'The fact that she is white has drawn criticism from some blacks who see the marriage as evidence that Clarence Thomas has rejected his roots.'
p916
aS'Clarence Thomas advocates a colorblind society, and his marriage may be an example of that philosophy.'
p917
aS'While the 14-member Senate Judiciary Committee presses Clarence Thomas to explain his qualifications for the Supreme Court, all 100 senators are under mounting pressure to explain their views of the judge.'
p918
aa(lp919
S'Clarence Thomas completed five grueling days of Senate questioning Monday, apparently well on his way to becoming the second black justice in the history of the Supreme Court.'
p920
aS'Supreme Court nominee Clarence Thomas told the Senate Judiciary Committee today it is "irrelevant" whether he holds any personal opinion on abortion, spurring new frustration among the committee\'s Democrats.'
p921
aS'Frustrated Democrats on the Senate Judiciary Committee say Supreme Court nominee Clarence Thomas is an evasive witness, but no groundswell of opposition to his confirmation seems to be emerging.'
p922
aS"(check) About 300 black pastors, representing congregations totaling more than 1 million churchgoers in 30 states, held a rally on the steps of the Supreme Court and then lobbied their senators to support confirmation of President Bush's Supreme Court nominee."
p923
aS"(check) On the other side of the Thomas confirmation issue, the National Abortion Rights Action League reported that senators had begun to receive the first of 500,000 anti-Thomas post cards the group has provided to the constituents of targeted lawmakers whose votes against Thomas' confirmation are regarded as critical."
p924
aS'Virginia Thomas is a soft- spoken, hard-working daughter of the heartland.'
p925
aS'The fact that she is white has drawn criticism from some blacks who see the marriage as evidence that Clarence Thomas has rejected his roots.'
p926
aasS'd077'
p927
(lp928
(lp929
S"A violent earthquake rocked Northern California during Tuesday evening's rush hour, caving in a section of the San Francisco Bay Bridge, terrifying World Series fans in Candlestick Park and shaking buildings as far as 200 miles away."
p930
aS'The quake, which lasted about 15 seconds, measured 6.5 on the Richter scale, according to seismologists at the California Institute of Technology in Pasadena.'
p931
aS"Televised footage of the bridge showed that a 30-foot section of the span's upper deck had collapsed onto the bottom level."
p932
aS'CBS-TV reported one person had been killed on the bridge.'
p933
aS'There were no other immediate confirmed reports of deaths or injuries, but ABC-TV and CNN both said some people were injured at Candlestick, where the game was canceled and fans were evacuated.'
p934
aS"In the city's high- towers, a few broken windows and other cosmetic damage could be seen."
p935
aS'"The buildings that collapsed did so because of a combination of two things: very poor soil and very poor structural design," said Peter I. Yanev, chairman of EQE Engineering Inc., a structural engineering firm in San Francisco .'
p936
aS'President Bush directed $273 million in immediate aid for quake victims and said he would visit the area Friday or Saturday.'
p937
aa(lp938
S'A major earthquake rocked northern California Tuesday evening, collapsing part of the San Francisco Bay Bridge and shaking Candlestick Park and buildings up to 95 miles away.'
p939
aS'It was not immediately clear how extensive the damage was from the quake, which struck at 5:04 p.m. PDT and registered 6.9 on the Richter scale.'
p940
aS'It was centered near Hollister, 80 miles southeast of San Francisco in San Benito County.'
p941
aS'The San Francisco earthquake of 1906, which occurred before the Richter scale was devised, has been estimated at 8.3 on the Richter scale.'
p942
aS'San Francisco Mayor Art Agnos has estimated damage $2 billion in his city alone.'
p943
aS'1 -- Major fires hit Marina District "The buildings that collapsed did so because of a combination of two things: very poor soil and very poor structural design," said Peter I. Yanev, chairman of EQE Engineering Inc., a structural engineering firm in San Francisco.'
p944
aS"SCIENTISTS LAST YEAR HAD PINPOINTED TUESDAY'S SITE AS LIKELY TO BE JOLTED"
p945
aS'Private groups and officials from Tokyo to London to Charleston, S.C., offered help to the ruptured San Francisco Bay area, but some said relief for the earthquake could drain coffers already strained by previous disasters.'
p946
aS'President Bush directed $273 million in immediate aid for quake victims and said he would visit the area Friday or Saturday.'
p947
aasS'd076'
p948
(lp949
(lp950
S"Prime Minister Margaret Thatcher's international admirers praised her courage and achievements Thursday after she announced she would resign."
p951
aS"Mrs. Thatcher's popularity is the lowest of any prime minister since opinion polls began in Britain 50 years ago, and senior colleagues have publicly admonished her to change her leadership style following the surprise resignation of her treasury chief, Nigel Lawson."
p952
aS'Former President Reagan thanked British Prime Minister Margaret Thatcher for backing him up when other allies backed down, heaping praise on his political soulmate as she heads off into the sunset.'
p953
aS'Together they advocated a hard line toward Moscow and championed military readiness - even though she was the first to recognize Mikhail S. Gorbachev as a leader she could do business with.'
p954
aS'George Bush and Margaret Thatcher had something more simple in common, a pragmatic relationship of mutual respect and support that benefited both .'
p955
aS"Earlier this year, Mrs. Thatcher overtook Liberal Lord Asquith's 1908-1916 tenure as prime minister to become Britain's longest continuously serving prime minister of the 20th century."
p956
aS'Margaret Thatcher set the example of what a woman could achieve in British society, but her critics say she did little else to help women along.'
p957
aS'Queen Elizabeth II awarded former Prime Minister Margaret Thatcher the coveted Order of Merit on Friday and made her husband a baronet, which is a hereditary knighthood .'
p958
aasS'd071'
p959
(lp960
(lp961
S'The Dog Fanciers Club organized the event Wednesday to honor Champion Great Elms Prince Charming II, a fluffy little Pomeranian, and Nero, a big, amiable bruiser of a German shepherd.'
p962
aS"Taking a break from the headaches of the Palestinian uprising and Israel's election campaign, thousands of Israelis turned out Saturday for a canine beauty pageant."
p963
aS"More than 2,500 dogs, representing 138 breeds, will compete for prizes at Sunday's All Breed Dog Show and Obedience Trials at the Los Angeles Sports Arena."
p964
aS'McFadden and his wife, Taffe, run their dog handling business in Campbell and do it primarily for the enjoyment and satisfaction it brings.'
p965
aS'The dogs are frequent winners in best of breed and best of show categories.'
p966
aS'ON A recent day, the telephone rang in the home of William Wegman.'
p967
aS'The photographer, known for his hilarious portraits of his Weimaraners, picked up. "Hello" .'
p968
aS'Such is the life of one German short- haired pointer, a show dog bearing the name CH.'
p969
aS'Robin Crest Lorien Corniche.'
p970
aS"One of the dog's three owners thinks the kennel-club world has seen enough of Cory, who is four years old."
p971
aS'The other two owners think he has plenty of prizes still ahead.'
p972
aa(lp973
S'The Dog Fanciers Club organized the event Wednesday to honor Champion Great Elms Prince Charming II, a fluffy little Pomeranian, and Nero, a big, amiable bruiser of a German shepherd.'
p974
aS"More than 2,500 dogs, representing 138 breeds, will compete for prizes at Sunday's All Breed Dog Show and Obedience Trials at the Los Angeles Sports Arena."
p975
aS'McFadden and his wife, Taffe, run their dog handling business in Campbell and do it primarily for the enjoyment and satisfaction it brings.'
p976
aS'"And breeds such as poodles have to be highly trimmed."; McFadden said he handles an average of 20 to 25 dogs at each show and works around 120 shows a year all over the U.S.'
p977
aS'ON A recent day, the telephone rang in the home of William Wegman.'
p978
aS'The photographer, known for his hilarious portraits of his Weimaraners, picked up. "Hello" .'
p979
aS'Go to court.'
p980
aS'In what is fast becoming a pit-bull match, the one owner, Anthony Attalla, is suing the other two, John and Rita Remondi, charging that they have been showing Cory even though he is officially retired (as announced in Dog News).'
p981
aS'Recognized as one of the most prestigious shows in all of dogdom, Westminster is also, with the exception of the Kentucky Derby, the longest continuous sporting event held in the U.S .'
p982
aasS'd070'
p983
(lp984
(lp985
S'Ousted East German leader Erich Honecker, who is expected to be indicted for high treason, was arrested Monday morning upon release from a hospital and taken to prison, the official news agency ADN said.'
p986
aS"He is under investigation on allegations of abuse of power, corruption, harboring terrorists and issuing shoot-to-kill orders to prevent East Germans from escaping to West Germany when he served as the country's leader."
p987
aS'Honecker has been staying at a Soviet military hospital outside East Berlin.'
p988
aS"Federal lawmaker Johannes Gerster said refusal to turn over the deposed East German leader for trial could ``burden'' Bonn and Moscow's ``outstanding relations,'' the Neue Osnabruecker Zeitung newspaper reported."
p989
aS'Last week Russia abruptly ordered Honecker to leave the country or face explusion.'
p990
aS'Mikhail Gorbachev urged all sides Tuesday to take their time in deciding the fate of Erich Honecker, as the fugitive former East German leader spent a seventh day of refuge inside the Chilean Embassy. Last week Russia abruptly ordered Honecker to leave the country or face expulsion.'
p991
aS'BFN [Text] Berlin -- Erich Honecker, the former GDR head of state, died at his house in Santiago, Chile on Sunday morning [29 May], according to his lawyer.'
p992
aS'After being released from prison in 1993, Honecker had traveled to Santiago to join his daughter, who is married to a Chilean.'
p993
aS'Since then, he and his wife had been living in a house in a wealthy Santiago area .'
p994
aa(lp995
S'Earlier this month, East German prosecutors said Honecker and former state security chief Erich Mielke would be charged with treason and corruption charges for misuse of their positions and state funds.'
p996
aS'East Germany authorities on Friday interrogated former Communist leader Erich Honecker about his role in the killings of people who tried to flee the country.'
p997
aS"More than 200 people were shot to death or killed by land mines as they tried to escape from East Germany's Communist rule."
p998
aS'Ousted East German leader Erich Honecker will not stand trial in East Germany as long as the formerly Communist country exists, a West German newspaper reported.'
p999
aS"Honecker, 78, was ousted as East Germany's leader on Oct. 18, paving the way for the country's first freely elected government in March."
p1000
aS'He has taken refuge at a Soviet military hospital in Beelitz, outside Berlin.'
p1001
aS'Last week Russia abruptly ordered Honecker to leave the country or face expulsion.'
p1002
aS'BFN [Text] Berlin -- Erich Honecker, the former GDR head of state, died at his house in Santiago, Chile on Sunday morning [29 May], according to his lawyer.'
p1003
aS'His colleague, Wolfgang Ziegler, had said earlier that the former most powerful man in the GDR had obviously died from his liver cancer.'
p1004
aasS'd073'
p1005
(lp1006
(lp1007
S'The initial explosions on Mount Pinatubo at 8:51 a.m. Wednesday sent a 10-mile-high mushroom cloud of swirling ash and rock fragments into the skies over Clark Air Base, forcing the Air Force to evacuate hundreds of American volunteers who had stayed behind to guard it and to tend sensitive communications equipment.'
p1008
aS'Philippine civil defense officials said that they have evacuated 19,369 people from villages within a 12-mile radius of the volcano by late Wednesday.'
p1009
aS'The volcano, about 10 miles west of the air base, came to life last week after six centuries of dormancy.'
p1010
aS'Three major new eruptions rocked Mount Pinatubo late Wednesday night and early today, forcing another emergency evacuation of Clark Air Base and increasing fears of even more violent explosions from the long-dormant volcano in the days ahead.'
p1011
aS'The U.S. military began flying home hundreds of the 28,000 Americans who crowded onto Subic Bay Naval Base as a bizarre tropical blizzard of thick volcanic ash caused power failures across the base Friday during a third day of increasingly violent eruptions of Mount Pinatubo.'
p1012
aS'At least four people have died, 24 have been hurt and four have been listed as missing since Pinatubo began erupting Sunday, after lying dormant for six centuries, officials said.'
p1013
aa(lp1014
S'Thousands of Americans piled into cars and buses with dogs, cats and duffel bags and left Clark Air Base today after scientists warned that the eruption of a nearby volcano could turn catastrophic.'
p1015
aS'The decision to evacuate one of the largest overseas U.S. military bases was made early today after searing gases, ash and rock shot out of 4,795-foot Mount Pinatubo on Sunday at speeds of up to 60 mph .'
p1016
aS'Angeles, a city of 300,000, is adjacent to Clark Air Base, but authorities had not ordered a general evacuation there.'
p1017
aS'President Corazon Aquino helicoptered to refugee centers near Angeles briefly before returning to Manila for an Independence Day rally and parade at Luneta Park.'
p1018
aS'She authorized the release of $1.42 million for relief efforts.'
p1019
aS'U.S. officials have refused to say whether nuclear weapons are stored at Clark, but they denied news reports suggesting a radiation danger if weapons depots on the base were hit by molten rock.'
p1020
aS'At least four people have died, 24 have been hurt and four have been listed as missing since Pinatubo began erupting Sunday, after lying dormant for six centuries, officials said.'
p1021
aS'About 84,000 people, including Americans, have been evacuated.'
p1022
aasS'd072'
p1023
(lp1024
(lp1025
S'Leonard Bernstein, the Renaissance man of music who excelled as pianist, composer, conductor and teacher and was, as well, the flamboyant ringmaster of his own nonstop circus, died Sunday in his Manhattan apartment.'
p1026
aS'Bernstein was the first American-born conductor to lead a major symphony orchestra, often joining his New York Philharmonic in playing his own pieces, while conducting from the piano .'
p1027
aS'He etched other niches in history by composing the indelible "West Side Story" and teaching a generation about classical music via the innovative television series "Omnibus" .'
p1028
aS'But this was HIS orchestra, and the musicians came to pay tribute to THEIR laureate conductor, who led them through 1,244 concerts during his 47-year association with the Philharmonic.'
p1029
aS'In addition to the Leonard Bernstein tribute that is part of the Los Angeles Philharmonic program this weekend, other local orchestras are also planning special remembrances.'
p1030
aS'Laughter and tears flowed freely as the Broadway theatrical community said goodby Thursday to Leonard Bernstein at the Majestic Theater.'
p1031
aS"Recordings by Leonard Bernstein, one of the most documented conductors in history, will undergo expanded release programs following the conductor's death on Sunday, said representatives of the recording companies controlling the late Bernstein's catalogues ."
p1032
aa(lp1033
S'Leonard Bernstein, whose 70th birthday in August was marked with a gala at Tanglewood, returned to Carnegie Hall with the New York Philharmonic 45 years after he made his triumphant conducting debut there with the orchestra.'
p1034
aS'The 72-year-old maestro suffers from a lung tumor, emphysema and pulmonary infections and has been told by his doctor to stop conducting and performing on the piano, his spokeswoman said Tuesday.'
p1035
aS"Bernstein's announcement was met with dismay in the music world, especially at the New York Philharmonic, which he directed from 1958 to 1969."
p1036
aS'Leonard Bernstein, the Renaissance man of music who excelled as pianist, composer, conductor and teacher and was, as well, the flamboyant ringmaster of his own nonstop circus, died Sunday in his Manhattan apartment.'
p1037
aS"Flags at Lincoln Center, where the New York Philharmonic performs, were lowered in memory of the orchestra's first American-born music director."
p1038
aS'The Philharmonic will perform an all-Bernstein program beginning Thursday and continuing through Oct. 23.'
p1039
aS'He etched other niches in history by composing the indelible "West Side Story" and teaching a generation about classical music via the innovative television series "Omnibus" .'
p1040
aasS'd080'
p1041
(lp1042
(lp1043
S'Ray Buckey and his mother, Peggy McMartin Buckey, were found not guilty Thursday of molesting children at the family-run McMartin Pre-School in Manhattan Beach, a verdict which brought to a close the longest and costliest criminal trial in history .'
p1044
aS"Originally, there were seven defendants, including Raymond Buckey's sister, Peggy Ann Buckey, and Virginia McMartin, the founder of the school, mother of Mrs. Buckey and grandmother of Raymond Buckey."
p1045
aS'Seven jurors who spoke with reporters in a joint news conference after acquitting Raymond Buckey and his mother, Peggy McMartin Buckey, on 52 molestation charges Thursday said they felt some children who testified may have been molested _ but not at the family-run McMartin Pre-School.'
p1046
aS"``The children were never allowed to say in their own words what happened to them,'' said juror John Breese."
p1047
aS"Thursday's acquittals in the McMartin Pre-School molestation case outraged parents who said prosecutors botched it, while those on the defense side proclaimed a triumph of justice over hysteria and hype."
p1048
aS'As it becomes apparent that McMartin cases will stretch out for years to come, parents and the former criminal defendants alike are trying to resign themselves to the inevitability that the matter may be one they can never leave behind.'
p1049
aa(lp1050
S'Ray Buckey and his mother, Peggy McMartin Buckey, were found not guilty Thursday of molesting children at the family-run McMartin Pre-School in Manhattan Beach, a verdict which brought to a close the longest and costliest criminal trial in history .'
p1051
aS"Jurors found the pair innocent of 52 charges and couldn't reach a verdict on 13 other counts."
p1052
aS"Whatever happens on those charges, few in this upper-middle-class Los Angeles suburb would disagree with the judge in the trial, William Pounders, who once said, ``The case has poisoned everyone who had contact with it''."
p1053
aS'There was plenty of blame to go around at the end of the lengthy and traumatic McMartin Pre-School molestation trial, but no one was willing to accept it.'
p1054
aS"Thursday's acquittals in the McMartin Pre-School molestation case outraged parents who said prosecutors botched it, while those on the defense side proclaimed a triumph of justice over hysteria and hype."
p1055
aS'"People will be much more alert to the possibility of this type of offense taking place at preschool and at schools," Pounders said.'
p1056
aS'MCMARTIN LAWSUITS MAY GO ON FOR YEARS'
p1057
aS'MEDIA: MCMARTIN STORY IS HEADED FOR THE SMALL SCREEN AND BOOKSTORE SHELVES.'
p1058
aS'MCMARTIN CASE FALLOUT TAKES ITS TOLL ON MINISTER;'
p1059
aasS'd081'
p1060
(lp1061
(lp1062
S'Five strikes in Poland from April 25 to May 10, and brief stoppages or strike threats in 25 more work places, constituted the worst labor unrest in the country since the 1981 martial-law crackdown.'
p1063
aS'More than 10,000 coal miners in four states were off the job today to express sympathy for miners in Virginia and West Virginia who have waged a bitter strike since April against the Pittston Coal Group.'
p1064
aS'President Mikhail S. Gorbachev said today that thousands of striking coal miners and other workers are urging railway employees to join the work stoppage and that the unrest threatens his economic reforms.'
p1065
aS"The labor unrest is the Soviet Union's worst in six decades."
p1066
aS"WORKERS AT KGHM, Poland's copper producing combine went on strike yesterday as coal mining unions staged token stoppages in a third of the country's pits in a major challenge to the government's economic policies."
p1067
aS"COALMINERS from Romania's Jiu Valley, who spearheaded violent anti-reform rampages through Bucharest in 1990 and 1991, are once again out on strike, pressing the government for higher wages."
p1068
aS'Black Miners In South Africa Set Strike Date --- Gold and Coal Workers Seek Better Pay and Benefits; Firms Build Stockpiles --- A Wall Street Journal News Roundup'
p1069
aa(lp1070
S'The National Union of Mineworkers said an estimated 200,000 black gold and coal miners in South Africa will begin a strike Sunday night for higher wages and better working conditions, in what it said would be the largest job action ever to affect the mining industry in that nation.'
p1071
aS'More than 4,000 workers at a coal mine in the southern city of Jastrzebie went on strike today to demand legalization of Solidarity and higher wages, a spokeswoman said.'
p1072
aS'More than 10,000 coal miners in four states were off the job today to express sympathy for miners in Virginia and West Virginia who have waged a bitter strike since April against the Pittston Coal Group.'
p1073
aS'A one-day strike by coal miners in Kazakhstan and the Ukraine has grown into a nationwide walkout involving up to 100,000 miners demanding President Mikhail Gorbachev surrender power to the restive republics, a union leader said Friday.'
p1074
aS"WORKERS AT KGHM, Poland's copper producing combine went on strike yesterday as coal mining unions staged token stoppages in a third of the country's pits in a major challenge to the government's economic policies."
p1075
aS"COALMINERS from Romania's Jiu Valley, who spearheaded violent anti-reform rampages through Bucharest in 1990 and 1991, are once again out on strike, pressing the government for higher wages."
p1076
aasS'd082'
p1077
(lp1078
(lp1079
S'Soviet media once branded Andrei D. Sakharov a traitor, but a Moscow weekly has now provided a sympathetic portrait of the human rights activist and his wife.'
p1080
aS'Much of the Moscow News article seemed designed to undo harm caused to the Sakharovs by previous press campaigns against them.'
p1081
aS'The 67-year-old Nobel Peace Prize winner is on his first trip to the West, less than two years after Soviet leader Mikhail Gorbachev freed him from internal exile in the city of Gorky.'
p1082
aS"Sakharov was elected in April to the new Soviet Congress of People's Deputies, just two years after he was released from seven years of internal exile ."
p1083
aS'The 68-year-old scientist and human rights activist died Thursday of an apparent heart attack in his Moscow apartment .'
p1084
aS"In what amounted to a public apology, Mikhail S. Gorbachev and Soviet leaders today eulogized Andrei D. Sakharov as a ``man of honesty and sincerity'' who suffered great injustice at the hands of previous rulers."
p1085
aS"The obituary also praised Sakharov's vision as a scientist, which made him the youngest-ever member of the Academy of Sciences at age 32 and led to his inclusion in a group that developed the Soviet hydrogen bomb."
p1086
aa(lp1087
S'The human rights activist was banished in 1980 to the closed city for opposing the Soviet occupation of Afghanistan.'
p1088
aS'President Mikhail S. Gorbachev allowed him to return to Moscow in December 1986.'
p1089
aS"Since then, Sakharov, who was one of the creators of his nation's hydrogen bomb, has vocally supported Soviet leader Mikhail S."
p1090
aS"Gorbachev's reform campaign, but has called for the liberation of all political prisoners and more improvements in the field of human rights."
p1091
aS'Sakharov called for a ban on nuclear testing long before the Kremlin.'
p1092
aS'Sakharov arrived in the United States on Sunday to visit relatives and receive medical treatment before going to Washington for a White House visit and a board meeting of the International Foundation for the Survival and Development of Humanity, of which he is a director.'
p1093
aS"The overwhelming vote in favor of the 67-year-old human-rights advocate by his colleagues at Moscow's leading physics institute came only two days after his candidacy was rejected by the governing board of the Academy of Sciences."
p1094
aS'SOVIET UNION NEAR ECONOMIC CATASTROPHE, SAKHAROV WARNS'
p1095
aS'The 68-year-old scientist and human rights activist died Thursday of an apparent heart attack in his Moscow apartment.'
p1096
aS'On Saturday, Pravda published what amounted to a public apology to Sakharov.'
p1097
aS'Outpouring of Grief For Sakharov'
p1098
aasS'd083'
p1099
(lp1100
(lp1101
S'Thunderstorms wreaked havoc across the middle Mississippi Valley and the Southeast on Wednesday with lethal tornadoes, wind up to 100 mph and hail up to the size of baseballs.'
p1102
aS'In Georgia, five people were injured, four critically, and at least 200 people evacuated after a tornado struck two mobile home parks and an interstate highway near Palmetto, about 25 miles southeast of Atlanta, authorities said.'
p1103
aS'Tornadoes were reported in New Jersey, Delaware, Virginia and New York, although the National Weather Service was unable to confirm them.'
p1104
aS'Seven children died when a wall collapsed in a school cafeteria near Newburgh, N.Y.'
p1105
aS'There were reports of damage from strong thunderstorms and gusty winds in eastern Virginia, Maryland, Delaware, New Jersey, eastern Pennsylvania and eastern New York state.'
p1106
aS'By far the worst damage was in Huntsville, where an estimated 1,000 people were left homeless and National Guardsmen stood watch against looting Thursday.'
p1107
aS'A tornado slammed into a shopping district, a residential area and a school Wednesday, killing at least 15 people, injuring more than 300 and trapping people in cars and homes, authorities said.'
p1108
aS'In Alabama, Gov. Guy Hunt said he would ask President Bush to declare Huntsville a disaster area to open the door to millions of dollars in federal relief.'
p1109
aa(lp1110
S'Thunderstorms wreaked havoc across the middle Mississippi Valley and the Southeast on Wednesday with lethal tornadoes, wind up to 100 mph and hail up to the size of baseballs.'
p1111
aS'The storm was particularly violent because it occurred along a line of extreme variations in temperature.'
p1112
aS'Strong northwesterly wind ushering the cold air into the north-central states gusted above 40 mph during the afternoon, creating wind chill readings colder than 25 degrees below zero. The thunderstorms developed along and ahead of a strong cold front and swept eastward from Missouri and Arkansas.'
p1113
aS'The two-day toll was at least 27 dead and hundreds injured.'
p1114
aS'<s docid="AP891116-0198" num="35" wdcount="16"> Tornadoes were reported Wednesday in Mississippi, Alabama, Georgia, South Carolina, North Carolina, Kentucky, Ohio and Indiana.'
p1115
aS'Alabama: Seventeen people were killed in Huntsville on Wednesday when a tornado touched down just before rush hour, causing major damage.'
p1116
aS'New York: A severe thunderstorm Thursday sent a tree crashing through an elementary school roof in Newburgh, about 60 miles north of New York City, killing at least seven children and injuring 18, authorities said.'
p1117
aS'In Georgia, five people were injured, four critically, and at least 200 people evacuated after a tornado struck two mobile home parks and an interstate highway near Palmetto, about 25 miles southeast of Atlanta, authorities said.'
p1118
aasS'd084'
p1119
(lp1120
(lp1121
S"The bodies of 47 sailors killed in the gun explosion on the Iowa arrived in the United States on Thursday as the Navy tried to figure out what caused the battleship's turret to blow up."
p1122
aS'During the trip home, investigators on board were reviewing a videotape of the turret taken by an Iowa officer who had wanted to record the firing of the big guns when the explosion occurred, said Lt.'
p1123
aS'This indicated the explosion occurred while the powder bags were still being loaded into the gun, the Times said, citing unidentified sources.'
p1124
aS'The Navy imposed a moratorium on firing 16-inch guns found on the Iowa and its three sister battleships, the New Jersey, the Wisconsin and the Missouri, pending an investigation of the disaster.'
p1125
aS"Critics have charged that the battleship's 16-inch guns are antiquated and dangerous; gunners say they are among the most accurate available ."
p1126
aS'The scarred battleship USS Iowa made a somber return Sunday to its home port, where about 3,000 family members and friends of the crew welcomed loved ones who escaped an explosion that killed 47 sailors.'
p1127
aS'On Monday morning, President Bush will lead a memorial service in a base hangar that can accommodate 3,000 people.'
p1128
aa(lp1129
S'A fiery explosion in a giant gun turret rocked the refitted battleship Iowa on maneuvers in the Atlantic today, killing at least 47 sailors and injuring an undetermined number, the Pentagon said .'
p1130
aS'Defense Department spokesman Dan Howard said the explosion may have resulted from the blast of a 110-pound gunpowder bag used to fire shells that weigh more than a ton a distance of up to 23 miles .'
p1131
aS'Eleven men escaped from powder magazines located deep within the ship at the base of the turret.'
p1132
aS'Ships with those guns _ the battleships Iowa, New Jersey, Missouri and Wisconsin _ were built during World War II.'
p1133
aS'Some critics have said the 16-inch guns are outmoded and dangerous .'
p1134
aS'During the trip home, investigators on board were reviewing a videotape of the turret taken by an Iowa officer who had wanted to record the firing of the big guns when the explosion occurred, said Lt.'
p1135
aS"Thousands of grieving friends and relatives of the fallen 47 crewmen from the battleship USS Iowa gathered quietly Monday and heard President Bush praise their loved ones as ``brothers in eternity''."
p1136
aasS'd085'
p1137
(lp1138
(lp1139
S'Killer Storm Hits South Carolina Coast'
p1140
aS'Sept. 21 (midnight) _ Hugo crashes into Charleston, S.C., with winds of 135 mph, leveling buildings and flooding streets.'
p1141
aS'Ten people in the Carolinas are killed.'
p1142
aS"Before the hurricane warning system was established, a storm of Hugo's power would have cost thousands of lives."
p1143
aS"Forecasters at the National Hurricane Center used computer models to track Hugo's path into Charleston, S.C."
p1144
aS'To determine the track of the storm, the forecasters analyze supercomputer predictions, satellite data, the history of similar storms and the current path of the hurricane.'
p1145
aS"``Several thousands of people who were in the shelters and the tens of thousands of people who evacuated inland were potential victims of injury and death''."
p1146
aS'Although claims adjusters are still tallying the losses, there is now little doubt that overall damage to insured property will far exceed the record $752.5 million in claims paid by the industry after Hurricane Frederic struck Mississippi and Alabama in 1979, Parsons said .'
p1147
aS"But if the seas warm up, say by 3 to 6 degrees Fahrenheit, ``the wind speeds might be 25 percent higher _ which means the destructive force would be more like 50 percent higher,'' he said."
p1148
aa(lp1149
S'Guadeloupe is devasted by winds measuring up to 150 mph.'
p1150
aS'Early reports say 97 percent of the buildings were damaged or destroyed on St. Croix, population 53,000.'
p1151
aS'Sept. 18 (daybreak) _ Hugo crosses the northeast corner of Puerto Rico.'
p1152
aS'Hurricane Hugo struck South Carolina with renewed fury Thursday after thousands of coastal residents in southeastern states grabbed what they could carry and fled inland on jammed highways.'
p1153
aS"The storm, which caused billions in damage, claimed 17 lives in South Carolina, and only two were in the Charleston area, which bore the brunt of Hugo's 135 mph winds."
p1154
aS'Using the information from the satellite, supercomputers at the National Meteorological Center in Suitland, Md., send information to the hurricane center where a tracking model constantly changes to account for current weather conditions and the position of the hurricane.'
p1155
aS'The hurricane specialists were surprised by the last-minute increase in wind speed, which was reported to them by Air Force reconnaissance.'
p1156
aS"The ``greenhouse effect'' may breed bigger and deadlier hurricanes in the future, storms up to 50 percent stronger than Hugo and last year's record-setting Gilbert, some meteorologists say."
p1157
aS'The two dominant home and automobile insurers in the Carolinas said Tuesday that they expect to be hit with about $600 million in claims from Hurricane Hugo.'
p1158
aasS'd086'
p1159
(lp1160
(lp1161
S'Saddam Grabs Kuwait to Fulfill Territorial, Financial Ambitions'
p1162
aS'Iraqi officials on Wednesday walked out on talks in Jiddah, Saudia Arabia aimed at resolving the 2-week-old crisis with neighboring Kuwait and complained that Kuwait was not negotiating seriously.'
p1163
aS'Diplomats said about 350 Iraqi tanks wheeled into the capital a few hours after crossing the border 40 miles away before dawn.'
p1164
aS'Iraqi, which is the size of California, has an estimated 1 million troops among its 17 million populace, compared to 20,300 members of the Kuwait armed forces.'
p1165
aS'In Ulan Bator, Mongolia, where Baker was on an Asian visit, a Baker spokeswoman said that the United States and the Soviet Union plan to issue a joint statement later today condemning the Iraqi invasion of Kuwait .'
p1166
aS'U.S., French and British warships, meanwhile, steamed toward the Persian Gulf.'
p1167
aS'President Bush said Friday that if Iraq moved against Saudi Arabia it would be attacking U.S.'
p1168
aS"``vital interests''."
p1169
aa(lp1170
S'IRAQ TRAMPLES KUWAIT;'
p1171
aS'TROOPS SEIZE CAPITAL, PALACE; EMIR FLEES;'
p1172
aS"The crisis began July 17 when Saddam accused Kuwait of trying to wreck the debt-ridden Iraqi economy with oil overproduction and began massing troops on Kuwait's border."
p1173
aS'He also accused Kuwait of stealing $2.4 billion by pumping oil from a disputed field that straddled their border, and demanded that Kuwait write off an estimated $15 billion it loaned Iraq during the Persian Gulf war.'
p1174
aS'The Iraqi government of President Saddam Hussein claimed that it invaded at the request of revolutionaries who had already staged a coup and established "the provisional government of free Kuwait".'
p1175
aS'Kuwait and U.N. diplomats labeled the coup report a farce.'
p1176
aS"The Bush administration demanded immediate withdrawal of the Iraqi forces and added that it was ``reviewing all options in its response to the Iraqi aggression''."
p1177
aS"Today's fighting quickly sent oil prices surging in international markets."
p1178
aS'_President Bush signed orders freezing Iraqi assets in the United States and blocking most Iraqi imports, including oil.'
p1179
aS'Security Council overwhelming approved sweeping trade and military sanctions against Iraq to punish it for invading the emirate .'
p1180
aS'Iraq struck back against the West today, rounding up hundreds of foreign nationals in Kuwait, as the U.N.'
p1181
aasS'd087'
p1182
(lp1183
(lp1184
S'CALGARY, Alberta (AP)'
p1185
aS'The best America could do was six medals, its worst Winter Games showing in 52 years.'
p1186
aS'SEOUL, South Korea (AP)'
p1187
aS'The Soviets took home 132 medals, including 55 gold, the most ever in a Summer Olympics without a major-power boycott.'
p1188
aS'The United States finished third in medals.'
p1189
aS'The Summer Olympics will be remembered for moments of glory like that enjoyed by U.S. diver Greg Louganis and the startling moment of disgrace when the gold was stripped from Canadian sprinter Ben Johnson.'
p1190
aS'Olympic Gold Falls in Advertising Value --- Medal Winners Lack Appeal As Endorsers'
p1191
aS'Dave Johnson of the United States clinched the decathlon gold medal in the final event at the World University Games Sunday .'
p1192
aS"The late Jesse Owens, whose performance at the 1936 Olympics put the lie to Hitler's boasts of racial superiority, picked up a fifth gold medal Wednesday for ``humanitarian contributions in the race of life''."
p1193
aS'SHOOTER BAKES SETS RECORD, WINS GOLD'
p1194
aS'What the relays demonstrate more clearly than any other athletics event is that at the Olympics the race has traditionally gone to affluent countries - or to those, rather, that choose to lavish resources on athletes.'
p1195
aa(lp1196
S'Time ran out for the U.S. athletes when the Winter Olympics ended Sunday, with a team headed by Brent Rushlaw a tick away from a U.S. bobsled medal and Dutch speed skater Yvonne van Gennip a triple gold medalist with time to spare.'
p1197
aS'As the Olympics winded up its next-to-last day, the Soviet Union had 27 medals, including 11 golds, while East Germany in second place had 22, including nine golds .'
p1198
aS'The Summer Olympics will be remembered for moments of glory like that enjoyed by U.S. diver Greg Louganis and the startling moment of disgrace when the gold was stripped from Canadian sprinter Ben Johnson.'
p1199
aS'Still, there were Louganis and other Americans to unabashedly cheer for _ like sisters-in-law Florence Griffith Joyner and Jackie Joyner-Kersee, who led an assault on the track and field record books, and Louganis.'
p1200
aS'The US has comfortably won the most relay medals, followed by Britain, the former Soviet Union, the former West Germany (not even counting the six won before 1939), the former East Germany, France and Canada.'
p1201
aS'President Bush presented the Congressional Gold Medal to his widow, Ruth Owens, in a ceremony at the White House also attended by three daughters and teammates of the track legend.'
p1202
aasS'd089'
p1203
(lp1204
(lp1205
S'Thunderstorms wreaked havoc across the middle Mississippi Valley and the Southeast on Wednesday with lethal tornadoes, wind up to 100 mph and hail up to the size of baseballs.'
p1206
aS'A powerful storm system brought strong winds and heavy thunderstorms to the Northeast on Thursday, causing flooding and widespread property damage.'
p1207
aS'Altogether, the storms were blamed for at least 27 deaths and more than 500 injuries over the two days.'
p1208
aS'Tornadoes were reported Wednesday in Mississippi, Alabama, Georgia, South Carolina, North Carolina, Kentucky, Ohio and Indiana.'
p1209
aS'Alabama: Seventeen people were killed in Huntsville on Wednesday when a tornado touched down just before rush hour, causing major damage.'
p1210
aS'_Georgia: 19 people were injured, four critically, and at least 200 people were evacuated Wednesday after a tornado struck two mobile home parks and an interstate highway near Palmetto, about 25 miles southeast of Atlanta.'
p1211
aS'There were reports of damage from strong thunderstorms and gusty winds in eastern Virginia, Maryland, Delaware, New Jersey, eastern Pennsylvania and eastern New York state.'
p1212
aS'Seven children died when a wall collapsed in a school cafeteria near Newburgh, N.Y.'
p1213
aS"In New York City, a woman was killed by a 12-foot steel beam that apparently had blown off her apartment's water tower."
p1214
aa(lp1215
S'Thunderstorms wreaked havoc across the middle Mississippi Valley and the Southeast on Wednesday with lethal tornadoes, wind up to 100 mph and hail up to the size of baseballs.'
p1216
aS'At least four tornadoes pounded the Huntsville, Ala., area.'
p1217
aS'A tornado slammed into a shopping district, a residential area and a school Wednesday, killing at least 15 people, injuring more than 300 and trapping people in cars and homes, authorities said.'
p1218
aS'The tornado left 18 people dead, hundreds injured and up to 1,000 homeless.'
p1219
aS'President Bush issued a disaster declaration Friday morning to clear the way for tornado victims to receive federal relief.'
p1220
aS'By this afternoon, severe thunderstorms were crossing the Northeast.'
p1221
aS'The National Weather Service put out a tornado watch for parts of Maryland, Delaware, Pennsylvania, New Jersey, New York, all of Connecticut and Rhode Island, and parts of Massachusetts, Vermont and New Hampshire.'
p1222
aS'The cafeteria cave-in claimed the lives of seven children near Newburgh, N.Y., and deaths also were reported in New York City, New Jersey and Illinois.'
p1223
aS'The storm was particularly violent because it occurred along a line of extreme variations in temperature.'
p1224
aS'The two-day toll was at least 27 dead and hundreds injured.'
p1225
aas.