(dp1
S'op94ag07-a'
p2
(dp3
S'Pefelistas dizem que o vice de Lula, Aloizio Mercadante (PT-SP), esta mais ligado aos militares do que Maciel porque e filho de general.'
p4
F0.41516824585301848
sS'Ha informacoes de que seu nome fora vetado como vice por FHC antes da escolha de Palmeira.'
p5
F0.35993701653267801
sS'E bom que os partidos procurem diversificar mais o debate em torno do qual gira a campanha; afinal, embora a inflacao seja um dos grandes males que hoje afetam o pais, o proximo governante tera inumeros outros problemas a enfrentar e convem que eles sejam levantados e discutidos.'
p6
F0.43386091563731227
sS'Parece dificil acreditar que o PT e seus aliados mudaram de posicao em relacao ao plano depois de ter procedido a uma reavaliacao puramente tecnica das medidas.'
p7
F0.3641785203646149
sS'E, se Maciel e de fato um candidato a vice sobre o qual nao pesam graves acusacoes de improbidade e que, em termos de peso politico, oferece mais a FHC que Palmeira, seu passado a sombra do regime militar foi o pretexto de que o PT precisava para tentar mudar o enfoque do debate eleitoral.'
p8
F0.51568795403234491
sS'Assim, o PT optou por deixar de criticar o real e passou a defender a nova moeda, censurando porem os altos precos e baixos salarios.'
p9
F0.59920470901851064
sS'Mesmo com a mudanca de discurso, o PT se encontrava na posicao incomoda de ter o Plano Real um projeto que nao e seu e ao qual se opos como principal ponto de discussao da campanha.'
p10
F0.43033148291193524
sS'E claro que a carreira de Maciel e um bom ponto para ser explorado pelo PT, ainda que com resultados incertos.'
p11
F0.37300192329612553
sS'Quando se trata de analisar o passado politico de alguem, e obvio, valem suas decisoes e acoes, nao sua arvore genealogica.'
p12
F0.39223227027636809
sS'E claro que o crescimento de FHC que assombrou ate os tucanos esta ligado a percepcao popular de exito do Plano Real.'
p13
F0.38005847503304602
sS'De resto, o PFL se esqueceu de que seu candidato, FHC, e filho de general e neto de marechal.'
p14
F0.67936622048675743
sS'As agremiacoes aglutinadas em torno da candidatura de Luiz Inacio Lula da Silva assustaram-se com o surpreendente desempenho nas pesquisas eleitorais de seu maior rival, Fernando Henrique Cardoso.'
p15
F0.38135638490484502
ssS'op94ag07-b'
p16
(dp17
S'Sem duvida nao se compara com os numeros anunciados ao mundo com a criacao do Nafta nem com aqueles que se tornaram corriqueiros com os avancos da Uniao Europeia.'
p18
F0.43899205630729893
sS'Cada pais podera, por exemplo, manter tarifas diferenciadas para ate 300 produtos, ou 399 no caso do Paraguai.'
p19
F0.61111111111111127
sS'Sinalizando que esperam caminhar no futuro rumo a um mercado comum em que, alem de mercadorias, tambem pessoas, capitais e servicos circulam livremente os paises membros concluiram acordo reconhecendo mutuamente diplomas escolares de primeiro e segundo graus.'
p20
F0.50756472613796977
sS'E de se notar, porem, que a esmagadora maioria dos produtos estarao cobertos pelas normas gerais e, de resto, concessoes especiais sao providencias que, longe de entravar, permitem que a integracao caminhe apesar de desacordos e de diferencas na situacao economica de cada membro.'
p21
F0.51161717792910033
sS'Afinal, apesar de tudo, e inegavel que e na insercao nos grandes fluxos da economia mundial que os paises membros, e o Brasil especificamente, mais tem a ganhar.'
p22
F0.39283710065919308
sS'Uma importante mostra de realismo foi dada pelos participantes da cupula ao ressaltar a importancia de buscar acordos do Mercosul com a Uniao Europeia e, posteriormente, com o Nafta.'
p23
F0.41120147258231476
sS'O acerto confirmado em Buenos Aires pelos presidentes de Brasil, Argentina, Uruguai e Paraguai estabelece uma uniao aduaneira a partir de 1o de janeiro do ano que vem.'
p24
F0.48708818704705237
sS'Mesmo o Mercosul como um todo, porem, de 4,1% de 1990 passou a absorver hoje 14% das vendas brasileiras ao exterior, tanto quanto todo o continente asiatico.'
p25
F0.41917001364979695
sS'Ainda assim, o acordo ratificado anteontem pelos membros do Mercosul, que cria um espaco economico de 200 milhoes de habitantes e um produto total de quase US$ 800 bilhoes, constitui um marco historico para as economias envolvidas e aponta para um processo ainda mais profundo de integracao.'
p26
F0.37796447300922725
sS'A cupula de Buenos Aires deixou claro tambem que o projeto regional vai alem de uma uniao aduaneira.'
p27
F0.43915503282683993
sS'Essa tarifa externa comum (TEC) variara dentro da faixa de 0 a 20%.'
p28
F0.39223227027636803
ssS'op94ag07-c'
p29
(dp30
S'Mas, faltou a nova lei eleitoral um dispositivo tornando compulsorio aos candidatos explicarem de onde virao os recursos materiais e humanos para concretizar as suas ideias mirabolantes.'
p31
F0.47140452079103168
sS'A criatividade e a competencia dos candidatos e dos profissionais de televisao terao de ser reveladas na base de suas reais qualidades o que ate aqui foi raro.'
p32
F0.5129891760425771
sS'A dona Joaninha, amiga velha e companheira dos tempos de ginasio, esta preocupada com a substituicao da "Eramos Seis" novela doce, amorosa e civilizada por aquele festival de ataques pessoais que marcaram as ultimas campanhas.'
p33
F0.37977726265637496
sS'Ponderei a ela que a nova lei impede os improperios e desestimula o sensacionalismo.'
p34
F0.45927932677184591
sS'Sei que o otimo e inimigo do bom.'
p35
F0.3692744729379982
sS'Tenho um amigo cineasta que costuma dizer: e bem mais facil ter sucesso com filmes proibidos para menores de 18 anos que com filmes de censura livre.'
p36
F0.3530939318018998
sS'Ha tambem o pessoal que se programou para aproveitar a temporada cultural e assistir a todas as pecas de teatro e espetaculos de musica.'
p37
F0.3752776749732567
ssS'op94ag09-a'
p38
(dp39
S'Na eleicao maxima, a de presidente, ha uma boa polarizacao que, parece, vai manter-se entre Fernando Henrique e Lula.'
p40
F0.40147753427348304
sS'Os custos financeiros de viagens e material de propaganda se multiplicam.'
p41
F0.41870402318820543
sS'O segundo absurdo e o sistema eleitoral proporcional, que constrange os candidatos a deputados estaduais e federais a competirem com outros candidatos de seu proprio partido e a sairem catando votos em centenas de municipios.'
p42
F0.54338848864905953
sS'O resultado e que, pela carencia de tempo, os candidatos a senador que disputam para valer ficam impossibilitados de explicar a que vem o que ate parece bom para alguns.'
p43
F0.43261291166581917
sS'Um quarto absurdo, e aqui puxo brasa para minha sardinha, e repartir o tempo dos candidatos ao Senado de forma igualitaria e nao proporcional a representatividade de seus partidos e coligacoes, como acontece com todos os demais candidatos.'
p44
F0.55328745921298572
sS'A diferenca para a escolha entre um e outro deve ser procurada na capacidade de propor um programa concreto de governo, ao mesmo tempo ousado e realista, e de articular as aliancas necessarias para garantir sua execucao.'
p45
F0.42954714564188612
sS'Com um sistema distrital, haveria campanhas localizadas e mais baratas, melhor conhecimento dos pleiteantes pelos eleitores e horarios gratuitos nas radios e TVs regionais, com poucos candidatos.'
p46
F0.49236596391733095
sS'O terceiro absurdo e a proibicao de que membros de um partido possam falar no horario gratuito dos candidatos de sua agremiacao.'
p47
F0.67248979539985843
ssS'op94ab26-a'
p48
(dp49
S'E a argumentacao nao convence, pois o Congresso Revisor poderia ate alterar as normas de mudar a Constituicao, que nao configuram nenhuma clausula petrea.'
p50
F0.53452248382484879
sS'Para comecar, reafirmo minha conviccao de que o Brasil nao conseguira retomar seu desenvolvimento a medio e longo prazos, nem consolidar a democracia, sem reformar amplamente a Constituicao de 1988.'
p51
F0.41731116305599292
sS'Apesar da advertencia de que, comecando em 5 de outubro, a revisao certamente iria fracassar por causa do ano supereleitoral de 1994, que alimenta o "ausentismo" dos parlamentares, a organizacao dos "contras" e o desinteresse do governo, a maioria do Congresso decidiu inicia-la logo, em vez de transferi-la para 1995.'
p52
F0.48238191061886609
sS'As previsoes sombrias foram confirmadas e nao se aprovou praticamente nada ate agora.'
p53
F0.36689969285267143
sS'Outra tese juridica implausivel do ponto de vista logico e que apenas o Congresso atual, eleito em 1990, poderia fazer a revisao.'
p54
F0.74438736831877672
sS'A tese e estapafurdia porque: 1) os dispositivos sobre o plebiscito e a revisao sao independentes; 2) nada no texto constitucional restringe a revisao ao sistema de governo.'
p55
F0.47087095579741872
sS'Ainda assim me arriscarei a questionar algumas teses juridicas sobre a revisao constitucional, pela relevancia do tema.'
p56
F0.3934447376823168
sS'Uma das teses mais estapafurdias levantadas por alguns juristas e que a revisao nao poderia ser feita, pois estaria vinculada ao plebiscito sobre sistema de governo.'
p57
F0.61538461538461542
sS'O texto constitucional diz apenas que a revisao deveria ser feita "apos" 5 de outubro de 1993, ou seja, poderia comecar nessa data ou no ano 2000.'
p58
F0.59266725933422248
sS'Li ou ouvi a opiniao de numerosos juristas sobre a possibilidade de adiamento para 1995.'
p59
F0.44992127066584753
sS'O Supremo Tribunal Federal nao aceitaria a prorrogacao, argumentando que o Congresso estaria adotando um novo metodo permanente de mudar a Lei Magna e, assim, a revisao nao acabaria nunca.'
p60
F0.37463432463267765
ssS'ce94ja25-a'
p61
(dp62
S'Angelo acredita que o material resultante da sua pesquisa e suficiente para 900 verbetes e umas 600 paginas de livro, a espera de patrocinadores.'
p63
F0.36262033381142111
sS'Das 140 musicas compostas para os clubes paulistas, 85 foram dedicadas ao time do Parque Sao Jorge.'
p64
F0.32673201960653564
sS'Ja a composicao "IV Centenario", de Mario Zan e J.'
p65
F0.3872983346207417
sS'O escritor e jornalista Assis Angelo, 41, esta agora preparando o que ele chama de a primeira enciclopedia musical sobre Sao Paulo.'
p66
F0.40909090909090912
sS'Aos 440 anos Sao Paulo ja foi cantada em pelo menos 1.800 musicas.'
p67
F0.55470019622522915
sS'O ano em que mais se cantou Sao Paulo foi o do 4.o Centenario, 1954.'
p68
F0.3146266024828463
sS'Por exemplo, com "Z", "Zona Leste Total" (de Luiz Carlos, 1991); com "X", "Xamego Paulista" (de Arlindo Bettio e Nhozinho, 1987); com "Y", "Yaya do Peruche" (de L. Correa e Rodolfo Vila) e com "A", entre outras, "A Baixada do Glicerio" (de Enerdino Ortiz, Joao Marques e Manoel Lourenco).'
p69
F0.38357064118830725
sS'M. Alves, fez tanto sucesso na epoca, que vendeu, numa Sao Paulo quase provinciana, mais de cinco milhoes de discos.'
p70
F0.48247525236638356
sS'So para registro, Mario Zan e o autor do bolero que so estourou e ficou bastante conhecido depois de gravado em espanhol.'
p71
F0.33333333333333337
sS'Essa historia de citar a cidade comecou em 1750, quando dois compositores (Calixto e Anchieta Arzao) decidiram fazer "Missa a Sao Paulo", partitura recuperada e gravada pela primeira vez em 1970 com regencia de Julio Medaglia.'
p72
F0.41502867831964479
ssS'op94ab24-a'
p73
(dp74
S'A cotacao do filho de ACM como postulante a vice decaiu sensivelmente nos ultimos dias, mas mesmo que seu nome seja definitivamente afastado o problema continua longe de resolvido.'
p75
F0.34565056491014173
sS'A parte qualquer logica eleitoral que possa ter, o acordo entre PFL e PSDB, desde que comecou a ser cogitado, acenava com toda sorte de dilemas e dificuldades em funcao da grande disparidade entre as duas legendas em termos de ideologia, historia partidaria e pratica politica.'
p76
F0.35781322366606716
sS'Nessas circunstancias, o voto de Luis Eduardo contra o impeachment revela um desdem para com a opiniao do eleitorado que atenta contra as responsabilidades e deveres da representacao popular.'
p77
F0.33402132856134248
sS'Assim, o seu possivel recuo agora pareceria dever-se muito mais ao temor do efeito eleitoral de uma divulgacao do voto pro-Collor de Luis Eduardo do que a qualquer consideracao de ordem etica quanto a esse mesmo voto atitude eleitoreira do tipo que o PSDB costumava condenar.'
p78
F0.45360921162651446
sS'Luis Eduardo de fato ja tinha a caracteristica peculiar de, como filho de Antonio Carlos Magalhaes, representar quase que um emblema do PFL trazendo, ao lado de um vigoroso apoio do governador da Bahia, a lembranca presente daquilo que esse partido significa em termos de pratica, de historia e de posicoes politicas no pais.'
p79
F0.42135048580019224
sS'Com o filho de ACM perdendo a dianteira, ressurge a dificil tarefa de encontrar um nome que ao mesmo tempo satisfaca a cupula pefelista, traga votos no Nordeste (ao fim e ao cabo, o maior atrativo do PFL) e nao cause uma rebeliao ainda maior entre os tucanos.'
p80
F0.34645116407786697
sS'Pois alem das ameacas de rebeliao que se disseminaram de imediato em diversos setores do PSDB, a estranha alianca ja provocou um novo e embaracoso problema a partir do favoritismo que vinha sendo dado ao nome do deputado Luis Eduardo Magalhaes (PFL-BA) entre os cotados para compor, como candidato a vice, a chapa presidencial de Fernando Henrique Cardoso.'
p81
F0.50395263067896967
sS'O fato e que o PSDB chegou a considerar seriamente o nome do pefelista baiano para integrar sua chapa, sabendo perfeitamente como ele havia votado na decisao do impeachment.'
p82
F0.36363636363636365
sS'Outra dificuldade que resta refere-se a escolha de um novo nome do PFL para vice na chapa de FHC.'
p83
F0.46195657812238883
ssS'mu94ag06-a'
p84
(dp85
S'A retirada das armas ocorreu um dia depois de a Iugoslavia formada por Servia e Montenegro ter interrompido todos os lacos com os servios da Bosnia, por causa da rejeicao por eles de um plano de paz internacional para a regiao.'
p86
F0.49685607523562952
sS'O ataque foi uma represalia a tomada por servios de armamentos pesados, retirados da zona de exclusao da ONU em torno da cidade.'
p87
F0.50024431958457793
sS'Avioes da Otan bombardearam ontem posicoes servias ao norte de Sarajevo.'
p88
F0.67419986246324204
sS'Por causa dos incidentes de ontem, a ONU voltou a suspender a ponte aerea de ajuda humanitaria a Sarajevo.'
p89
F0.62312344546071152
sS'Em fevereiro, a ONU criou uma area de exclusao de 20 km em torno de Sarajevo, na qual foi proibida a presenca de armas pesadas.'
p90
F0.80836727634018768
sS'Centenas de caminhoes que iam da Servia para regioes da Bosnia sob controle servio foram impedidos ontem de cruzar a fronteira.'
p91
F0.39259818304894545
sS'A Servia e a principal fonte de armas e suprimentos para os servios da Bosnia.'
p92
F1
sS'O comandante do Exercito servio garantiu ao comandante das tropas da ONU em Sarajevo, general Michael Rose, que todas as armas retiradas da zona de exclusao seriam devolvidas ate hoje.'
p93
F0.68718427093627676
ssS'mu94ab02-b'
p94
(dp95
S'Esses incidentes suscitaram temor numa nacao que envia 50 mil estudantes e tres milhoes de outros viajantes aos EUA todos os anos.'
p96
F0.45950374864049021
sS'"As autoridades americanas pedem desculpas e exortam os japoneses a nao terem medo, mas a verdade e que eles deveriam ter medo, sim.'
p97
F0.47769731647386149
sS'Os analistas de noticias de Toquio tiveram que explicar o que isto significava.'
p98
F0.37998029782867421
sS'Sete pessoas foram assassinadas em Los Angeles num final de semana, numero tao normal que nenhum deles mereceu destaque nos principais jornais da cidade.'
p99
F0.40414518843273806
sS'O indice de assalto nos EUA e cerca de 130 vezes superior ao do Japao.'
p100
F0.87671400751920925
sS'Nos EUA, ha cerca de 200 milhoes de armas.'
p101
F0.37688918072220451
ssS'in96ab09-b'
p102
(dp103
S'O ministro da Defesa sul-coreano, Lee Yang-ho, disse ontem que as tropas do pais, apoiadas por 37.000 soldados americanos, estariam prontas para responder a qualquer agressao militar de seus vizinhos.'
p104
F0.53072277760302189
sS'Alem disso, Seul e Washington examinam a possibilidade de reforcar a vigilancia sobre a Coreia do Norte, principalmente com avioes-radar.'
p105
F0.47628204247844697
sS'Violacao - Os sul-coreanos tentaram ontem angariar o apoio mundial a sua denuncia contra a Coreia do Norte pela violacao da tregua acertada em 1953, que acabou com a guerra entre os dois paises.'
p106
F0.406578556307363
sS'Segundo a agencia Yonhap, as tropas foram instruidas ontem para atirar em qualquer soldado norte-coreano que cruzasse a partir de ontem a fronteira com a zona desmilitarizada.'
p107
F0.42390021084050217
sS'O Comando das Nacoes Unidas considerou a invasao norte-coreana de domingo uma "violacao significativa" do armisticio, mas agregou que nao havia motivo para um alarme.'
p108
F0.5185449728701349
sS'Os norte-coreanos acusaram seus vizinhos de estarem preparando uma invasao a seu pais, com a ajuda militar dos Estados Unidos.'
p109
F0.33502969713024494
sS'O porta-voz do ministro do Exterior, Suh Dae-won, disse que a Coreia do Sul pediu a 30 paises, entre eles Estados Unidos, China, Japao e Russia, para que pressionassem Pionguiangue a respeitar o armisticio de mais de 40 anos.'
p110
F0.59714844961030011
sS'Mesmo assim, os presidentes Kim Young-sam e Bill Clinton irao se reunir na proxima terca-feira, na cidade sul-coreana de Cheju, para discutir qual a melhor atitute frente as movimentacoes militares norte-coreanas.'
p111
F0.38924947208076149
ssS'in96ab19-a'
p112
(dp113
S'"O unico culpado e o Hisbola, e se os sirios e os libaneses nao impedirem ele vai provocar uma tragedia no Libano", afirmou o primeiro-ministro, durante entrevista coletiva a imprensa, em Tel Aviv.'
p114
F0.31128640318234518
sS'Em entrevista a CNN, de Damasco, na Siria, o primeiro-ministro libanes, Rafic Hariri, acusou Israel de obstruir as negociacoes.'
p115
F0.28171808490950551
sS'O massacre deixou indignada a populacao, arrasados ate mesmo fotografos e cinegrafistas acostumados a registrar cenas semelhantes, e provocou imediata e vigorosa reacao internacional.'
p116
F0.57735026918962584
sS'O pai, em peregrinacao a Meca, nao chegou a conhecer o filho.'
p117
F0.27277236279499051
sS'Alvos - Um porta-voz do governo israelense, Uri Dromi, reiterou que Israel nao tem outra escolha, pois a prioridade e interromper os ataques de Katyushas contra o pais.'
p118
F0.3985405706652278
sS'BEIRUTE - O confronto entre Israel e a guerrilha fundamentalista do Hisbola (Partido de Deus) completou ontem oito dias de forma sangrenta.'
p119
F0.36927447293799825
sS'O segundo, horas depois, atingiu uma base das Nacoes Unidas transformada em acampamento em Cana, nos arredores de Tiro, matando pelo menos 100 pessoas e ferindo mais de 190, quase todos civis, a maioria mulheres e criancas, que se haviam refugiado no local para escapar dos bombardeios israelenses.'
p120
F0.3692744729379982
sS'Sadler, que esteve no local, contou que muitos fotografos e cinegrafistas baixaram as cameras e comecaram a chorar diante dos corpos mutilados de homens, mulheres e criancas.'
p121
F0.31052950170405941
sS'Quando o reporter perguntou a Barak sobre a promessa de nao atacar o Hisbola se houvesse perigo de matar civis, Barak respondeu que o piloto que bombardeou a casa nao podia saber que havia civis la.'
p122
F0.2931977358041869
ssS'in96jl01-a'
p123
(dp124
S'A senadora lembrou que a Frepaso, apesar de so ter cinco anos, chegou em segundo lugar nas eleicoes presidenciais do ano passado, a elegeu senadora no fim do ano passado e agora a sagrou constituinte.'
p125
F0.47445377327904498
sS'Alem do tradicional voto de protesto na capital federal, ela foi atribuida ao aumento do indice de desemprego (que atinge agora 2,2 milhoes de trabalhadores, ou 17,1% da populacao economicamente ativa) e ao provavel reajuste das tarifas telefonicas e outros servicos publicos.'
p126
F0.56218269514104524
sS'Segundo as pesquisas de boca-de-urna, o segundo colocado foi Norberto de la Porta, da tambem oposicionista Frente Pais Solidario (Frepaso).'
p127
F0.68181818181818177
sS'A eleicao de Fernando De La Rua, senador por tres mandatos, sendo que um interrompido durante a ditadura militar, foi possivel gracas a reforma constitucional realizada ha dois anos, que deu a capital argentina o direito de eleger seus governantes, alem de permitir a reeleicao do presidente.'
p128
F0.46840472358274404
sS'A vitoria de De la Rua significa, tambem, o renascimento da Uniao Civica Radical, o mais antigo partido da Argentina, que entrou em crise devido ao final turbulento do governo de Raul Alfonsin, em 1989, quando a hiperinflacao e as ameacas de golpe militar levaram o entao presidente a antecipar em dois meses a posse de Menem.'
p129
F0.47895798256597671
sS'BUENOS AIRES - Na sua primeira eleicao direta, a capital do tango elegeu ontem o senador da oposicionista Uniao Civica Radical (UCR) Fernando De La Rua, de 58 anos, para prefeito da cidade.'
p130
F0.54056247761733534
ssS'in96jl02-a'
p131
(dp132
S'"Quero ver o laudo oficial sobre o estado de saude do Senhor Yeltsin.'
p133
F0.35136418446315326
sS'MOSCOU - Apos um sumico de quatro dias, o presidente da Russia, Boris Yeltsin, reapareceu ontem para um pronunciamento de dois minutos pela televisao.'
p134
F0.47286624374346037
sS'Foi o bastante para a imprensa russa especular sobre o ocorrido nas decadas de 70 e 80 com Leonid Brejnev, Yuri Andropov e Konstantin Chernenko, que permaneceram no Kremlin, apesar de incapacitados.'
p135
F0.3290450982642491
sS'No caso o general Alexander Lebed, atual responsavel pela seguranca nacional.'
p136
F0.85811633032103307
sS'Cardiaco desde 1987, o presidente russo nos ultimos 18 meses esteve internado pelo menos tres vezes: em dezembro de 1994, no fim de julho de 1995 e em outubro passado.'
p137
F0.40555355282690636
sS'A Constituicao diz que se o presidente ficar doente, o primeiro-ministro assume e convoca nova eleicao em tres meses.'
p138
F0.86452993486725127
sS'Mas a lei sobre as eleicoes presidenciais diz que, se um dos candidatos ao segundo turno se retirar, sera substituido pelo terceiro colocado no primeiro turno.'
p139
F0.89708522714506045
ssS'mu94ag09-a'
p140
(dp141
S'"Sentimos que somos amigos e parceiros indo com determinacao, visao, empenho em direcao ao estabelecimento de fundacoes de uma paz abrangente nesta regiao", disse Hussein na cerimonia de inauguracao da fronteira.'
p142
F0.46516047661624044
sS'O secretario de Estado dos EUA, Warren Christopher, disse na abertura de fronteiras que Israel e Siria tem "uma longa distancia a percorrer" para a paz.'
p143
F0.53136893132405716
sS'Oficialmente, a primeira vez que os dois lideres se viram pessoalmente foi na reuniao de cupula de Washington.'
p144
F0.5300888152439962
sS'Israel e Jordania abriram ontem a primeira passagem de fronteira entre os dois paises depois de 46 anos de estado formal de guerra.'
p145
F0.72665120795466787
sS'O premie de Israel, Yitzhak Rabin, entrou em territorio jordaniano e depois navegou com o rei Hussein da Jordania no iate real em aguas territoriais de Israel.'
p146
F0.4944513860581975
ssS'ce94ab10-a'
p147
(dp148
S'A empresa toda e um macroprocesso, uma equipe unica voltada para o objetivo comum de atingir altos niveis de produtividade, com a manutencao e a conquista de novos clientes.'
p149
F0.44411559168432757
sS'Sera que a estrutura da empresa esta direcionada a satisfacao total do cliente?'
p150
F0.42966892442365973
sS'A perda de competitividade e a consequencia mais direta da falta de agilidade nas decisoes, perda de informacoes, aumento da burocracia interna, pois, nos "momentos da verdade", o funcionario precisa tomar decisoes que implicam, muitas vezes, questoes vitais para o cliente.'
p151
F0.36212279276283982
sS'A empresa passa a estruturar-se para transformar em sucesso esses "momentos da verdade".'
p152
F0.37062465833055064
sS'O fluxo da decisao e a cadeia cliente-fornecedor devem estar alinhados aos valores que o cliente preza: cortesia, presteza, eficiencia, receptividade e personalizacao.'
p153
F0.41660451513863639
sS'E dificil encontrar o responsavel, quando a empresa nao e direcionada a satisfacao total dos clientes.'
p154
F0.39223227027636814
sS'Faz-se de tudo para que nao haja registro do erro, para que ele nao seja do conhecimento dos que detem o poder de mando.'
p155
F0.35903031263118496
sS'A delegacao de poder e fundamental nesse tipo de organizacao participativa e cooperativa.'
p156
F0.40360367639778749
sS'1 SATISFACAO DO CLIENTE Colocar a pessoa certa, na hora certa, para fazer certo, da primeira vez, o que o cliente deseja.'
p157
F0.38298219089112401
sS'E conhecido o fenomeno de "ruido na comunicacao": a informacao se enfraquece e deforma quanto maior o numero de transmissores e receptores intermediarios.'
p158
F0.36263210777229288
sS'A maioria das empresas possui estruturas tradicionais de comando, onde o cliente relaciona-se com as pessoas que tem menor poder de decisao.'
p159
F0.36028834606144611
ssS'mu94de05-a'
p160
(dp161
S'O vicio profundo da democracia americana a abstencao eleitoral do eleitorado pobre, negro e hispanico, e a alta participacao dos eleitores brancos, anglo-saxoes, suburbanos e de classe media a alta, acabou por se impor.'
p162
F0.3541441234874142
sS'Em 1938, a perda da maioria por Franklin Roosevelt e o Partido Democrata pos fim ao New Deal; em 1948, a reconquista da maioria democrata alterou a correlacao de forcas partidaria, mas nao politica.'
p163
F0.39721495475336815
sS'Se antes ele se via obrigado a subordinar alguns aspectos da politica externa as questoes da vida interna norte-americana, agora tal inclinacao tendera a exacerbar-se.'
p164
F0.36051834183722337
sS'Ele vai enfrentar dificuldades insuperaveis no campo da politica nacional, sobretudo no que diz respeito a aprovacao de uma reforma de fundo do sistema de saude.'
p165
F0.58501793930170454
sS'Ja comprovou que o tema mexe com a classe media, tanto a classe media conservadora e racista que reprova a presenca de estrangeiros quanto aquela mais tolerante e liberal, que rechaca a ilegalidade e seus efeitos nocivos para sua propria sociedade.'
p166
F0.37169258394720106
sS'Tudo se sujeitara aos imperativos da campanha de 1996: Cuba, Haiti, a questao dos imigrantes, o livre comercio, o combate ao narcotrafico, a devolucao do Canal do Panama etc.'
p167
F0.38251842611872477
sS'Tendo em vista que os opositores mais perigosos de Clinton serao, entre outros, o governador da California, Pete Wilson, que assegurou sua reeleicao gracas em parte a uma campanha anti-imigrantes, e o senador Robert Dole, que comecou a rever seu tradicional apoio a abertura do mercado norte-americano, o ocupante atual da Casa Branca se vera forcado a deslizar em direcao a posicoes cada vez mais demagogicas.'
p168
F0.38697637169562726
sS'Os novos dirigentes republicanos da Camara e do Senado, de Jesse Helms a Newt Gingrich, ja manifestaram sua intencao de imprimir uma nova orientacao a politica externa norte-americana, em ambitos tao diferentes quanto o Gatt, a assistencia a outros paises, a participacao em missoes sob o comando da ONU e o envio de tropas ao Haiti e outros paises.'
p169
F0.68320292993024601
sS'Os dogmas nao costumam prestar-se a negociacoes, nem mesmo no pais mais pragmatico de todos, e e provavel que a predilecao clintoniana pela conciliacao se choque com o fervor conservador da direita crista.'
p170
F0.34802459844258299
sS'Os republicanos costumam atribuir a maxima importancia ao assunto e muitos extremistas reaganianos da cruzada antidrogas dos anos 80 ocupam posicoes proximas a nova direita.'
p171
F0.34694433324435547
ssS'in96fe26-b'
p172
(dp173
S'Disfarcado numa farda do Exercito israelense, um terrorista aproximou-se dos soldados que se aglomeravam num ponto de onibus de Ashkelon, proximo a Faixa de Gaza, e acionou a bomba que trazia junto a seu corpo.'
p174
F0.36612091841585581
sS'Pouco depois dos atentados, o primeiro-ministro Shimon Peres afirmou que seu pais nao dara tregua ao terrorismo, e que prosseguira com o processo de paz com os palestinos.'
p175
F0.7110571291368637
sS'Fronteiras - Os dois atentados de ontem ocorreram apenas dois dias depois da reabertura das fronteiras de Israel com os territorios palestinos de Cisjordania e Gaza, determinado a partir de informacoes de que radicais muculmanos tentariam vingar a morte de Ayash.'
p176
F0.73112615501393086
sS'Horas mais tarde, a policia palestina prendeu na regiao de Gaza cerca de 50 militantes do Hamas, e anunciou seu proposito de nas proximas horas deter mais 150 suspeitos.'
p177
F0.40269363312841466
sS'Os presidentes Bill Clinton, dos EUA, e Hosni Mubarak, do Egito, bem como o rei Hussein, da Jordania, enviaram mensagens de condolencias as familias das vitimas e ao governo israelense.'
p178
F0.66815310478106094
sS'A semelhanca entre os dois atentados levou a policia a deduzir que se tratou de uma operacao coordenada por uma mesma faccao do Hamas, num ato de vinganca contra o atentado praticado por um extremista judeu ha exatamente dois anos em Hebron, episodio em que 29 palestinos foram assassinados.'
p179
F0.43196773019457513
sS'Metal - A Rua Jaffa, a principal de Jerusalem, se assemelhou a um campo de batalha, com dezenas de corpos mutilados espalhados num raio de dez metros, e feridos presos nas ferragens.'
p180
F0.377871090803229
ssS'in96fe26-a'
p181
(dp182
S'Num comunicado divulgado ontem, 15 horas depois do incidente, o governo de Cuba afirmou que os avioes foram derrubados dentro do espaco aereo cubano, entre oito e 13 quilometros ao norte de Baracoa, praia a oeste de Havana.'
p183
F0.31807321258143212
sS'Ate o final da tarde de ontem, a Guarda Costeira americana, que entrou em aguas territoriais cubanas com protecao de cacas F-15 da Forca Aerea dos EUA e com autorizacao do governo de Havana, nao tinha encontrado nenhum sobrevivente ou os corpos dos quatro tripulantes que viajavam nos dois avioes abatidos.'
p184
F0.70164641544562345
sS'Plano de voo - Apesar de EUA e Cuba nao terem concordado sobre a localizacao exata dos avioes na hora do ataque, esta claro que os tres avioes deixaram territorio americano com plano de voo rumo as Bahamas e depois desviaram seu caminho para Cuba, o que ja caracteriza uma violacao das leis de aviacao civil dos EUA e de quase todos os paises do mundo.'
p185
F0.57145448831959456
sS'Alem de afirmar que os avioes foram avisados antes do ataque e definir sua posicao como "invasora", os cubanos repetiram versoes de leis internacionais de protecao territorial.'
p186
F0.33149677206589795
sS'O porta-voz do governo cubano, Jose Ponce, declarou que pouco antes dos avioes serem abatidos as autoridades de seu pais ja haviam detectado uma primeira invasao do seu espaco aereo e que, no segundo incidente, os avioes abatidos foram avisados duas vezes de que deveriam retornar.'
p187
F0.30658330991377586
sS'Christopher disse ainda que o presidente Bill Clinton recebeu uma colecao de opcoes de retaliacao contra Cuba, preparada em uma reuniao de altos funcionarios civis e militares de seu governo, realizada ontem sem a presenca do presidente, na Casa Branca.'
p188
F0.32025630761017432
sS'MIAMI - O governo americano instruiu seu representante nas Nacoes Unidas a convocar uma reuniao imediata do Conselho de Seguranca da ONU para discutir o ataque da Forca Aerea cubana, no final da tarde de sabado, a dois avioes civis do grupo Irmaos para o Resgate, formado por exilados cubanos em Miami.'
p189
F0.64359590293483837
sS'Iremos consultar nossos aliados mas ja posso adiantar que os Estados Unidos deverao tomar atitudes proprias e isoladas", disse o secretario, recusando-se a adiantar a lista de opcoes que o presidente Clinton ira considerar na maior crise que seu governo enfrenta no relacionamento com Cuba.'
p190
F0.31794032215884399
sS'"Cuba tem obrigacao de defender seu territorio contra qualquer tipo de invasao e foi o que fez neste episodio.'
p191
F0.38095238095238093
ssS'in96ju13-a'
p192
(dp193
S'Para o Instituto de Sociologia e Parlamentarismo, O presidente recebera 40% dos votos e Ziuganov, 31%.'
p194
F0.3273268353539886
sS'O presidente - que encerrou a campanha em Moscou, mas que amanha participara de um ultimo comicio, em Iekaterimburgo, sua cidade natal - exortou os moscovitas a votarem pela permanencia da estabilidade e a manterem a calma, para que nada afete o brilho das eleicoes de domingo.'
p195
F0.34793633251246797
sS'Com a ausencia de Ziuganov, a personalidade de maior destaque do comicio comunista da manha foi Stanislaw Terekhov, candidato a prefeito de Moscou.'
p196
F0.56392590148019317
sS'E de 4% a margem maxima de erro nas sondagens dos dois institutos.'
p197
F0.32302914123489929
sS'MOSCOU - Em comicio na Praca Vermelha, ao qual compareceram cerca de 100 mil pessoas, o presidente Boris Yeltsin afirmou ontem que nao permitira que a violencia prejudique as eleicoes russas.'
p198
F0.54710120443219323
sS'Segundo o diretor do instituto, Nuzgar Betaneli, a prevista vitoria de Yeltsin se explica pelo fato de sua equipe ter conseguido convencer a sociedade de que a reeleicao favorece a economia do pais.'
p199
F0.3391231227194379
sS'Independencia - Tambem o candidato ultranacionalista Vladimir Jirinovski participou de ato publico, com assistencia reduzida.'
p200
F0.59628479399994394
sS'Seu principal adversario, o candidato comunista Guenadi Ziuganov, reuniu-se a noite com milhares de universitarios, aos quais previu a desintegracao de mil anos da historia russa caso o eleito seja Yeltsin.'
p201
F0.67706717423011908
sS'Horas antes, ao final do encontro com o presidente Yeltsin e com o ministro das Emergencias, o prefeito anunciara a tomada de medidas especiais para garantir a seguranca dos moscovitas.'
p202
F0.31008683647302115
sS'Diferenca - Pesquisas sobre intencao de voto divulgadas ontem por dois dos mais acreditados organismos de consulta da capital confirmaram a tendencia para a vitoria de Yeltsin, mas por uma diferenca insuficiente para a eleicao no primeiro turno.'
p203
F0.34050261230349949
sS'"Nos escolhemos a liberdade e a dignidade humana, mas infelizmente ha quem se oponha a esta escolha", disse ele, numa referencia ao atentado a bomba que no dia anterior causou a morte de quatro pessoas no metro de Moscou.'
p204
F0.44995770596336571
ssS'op94ag24-a'
p205
(dp206
S'Se o governo e os partidos que o apoiam tivessem se engajado na reforma teriam desagradado multiplos e variados grupos cujo poder vocal certamente ultrapassaria os silenciosos beneficiados.'
p207
F0.45509102730910322
sS'O PT demonstrou que conhece o proletariado da mesma forma que o velho mestre: pela literatura.'
p208
F0.36514837167011072
sS'O governo e os partidos que o apoiam fingiam que queriam a reforma, mas o PT lutou abertamente contra ela.'
p209
F0.66666666666666674
sS'Ele e bem feito para atingir alguns objetivos: eliminar a inflacao inercial e reganhar o controle da oferta monetaria.'
p210
F0.72456883730947197
sS'Foi incapaz de entender onde residiam a forca e a fraqueza do programa.'
p211
F0.43033148291193518
sS'Para expo-lo a luz do dia nao se juntaram numa caca santa o papa, o czar, Metternich e Guizot, os radicais franceses e os policiais alemaes.'
p212
F0.3633610463437158
sS'Como e evidente, a reforma da Constituicao implica transferencia de poder e de renda e, frequentemente, dos dois.'
p213
F0.42766860172384985
sS'Nao tenta enganar a sociedade e a adverte sobre os riscos que cercam o real, se as mudancas institucionais requeridas nao forem feitas.'
p214
F0.41159660434202122
sS'O que o PT nao entendeu e que esse inequivoco oportunismo eleitoral nao fala necessariamente contra o programa, pois sao coisas distintas.'
p215
F0.54006172486732162
ssS'op94ab02-a'
p216
(dp217
S'Requer-se a analise das propostas dos partidos e candidatos.'
p218
F0.44095855184409843
sS'O compromisso do cristao e de amar a Deus sobre todas as coisas e ao proximo como Jesus nos ensinou.'
p219
F0.53346506936926441
sS'Nada pode destruir a confianca, que Deus infunde em nosso intimo, de que nos destina a felicidade na comunhao plena com ele e os irmaos.'
p220
F0.3916089015337057
sS'O cristao, a exemplo de Jesus, precisa ainda assegurar a solicitude pelos mais carentes, no anseio de a eles oferecer condicoes dignas de vida, reduzindo as distancias que separam ricos e pobres, ate chegarmos a uma vivencia verdadeira da fraternidade.'
p221
F0.426014322842305
sS'Pascoa e esperanca, certeza de que com a morte nao terminara a nossa existencia.'
p222
F0.48666426339228763
sS'Faz parte desta missao o direito e o dever de procurarmos a concordia, a justica social e a promocao integral de cada pessoa humana.'
p223
F0.40555355282690636
sS'A honestidade, a justica, a paz e a promocao do bem comum que a todos deveriam atrair.'
p224
F0.4518564248465835
ssS'ce94ja25-b'
p225
(dp226
S'"Nao vamos de modo algum diminuir o atendimento a solicitacoes especificas da sociedade, mas vamos aumentar a atencao, na universidade, a propostas estruturais para o pais, como ja fizemos no forum capital-trabalho ou no projeto para a revisao constitucional", diz Jacques Marcowitch, novo pro-reitor de Cultura e Extensao Universitaria.'
p227
F0.47077449199012894
sS'Mas a USP se integra na cidade atraves de projetos que vao desde onibus a gas para a Companhia Metropolitana de Transportes Coletivos ate o de coleta seletiva de lixo, alem de outros 3 mil servicos especificos como atendimento veterinario e cursos de aperfeicoamento de executivos.'
p228
F0.71876977042784695
sS'Servicos "A USP nao pode tapar buracos na area de servicos sociais e de saude", diz Eduardo Siqueira Barbosa, diretor de projetos da Coordenacao Universitaria de Cooperacao Universitaria e Atividades Especiais (Cecae) da USP.'
p229
F0.53495061563864121
sS'Atraves do Instituto de Estudos Avancados (IEA), a USP pretende discutir e apresentar propostas para questoes como a Amazonia e o sistema Judiciario do pais.'
p230
F0.45625874568138713
sS'Segundo Siqueira, o atendimento ao publico em geral tem que estar relacionado ao aperfeicoamento de pessoal e do conhecimento.'
p231
F0.63976327821640022
sS'O cuidado de Siqueira se transforma em susto quando se fala em divulgar mais os servicos de laboratorio ou atendimento especializado de saude, por exemplo.'
p232
F0.458682472293863
ssS'ce94ja8-a'
p233
(dp234
S'O reggae e uma musica essencialmente mutante.'
p235
F0.46291004988627571
sS'Muito do espirito fraternal e engajado do reggae se perdeu com a morte de Marley e Tosh, seus dois maiores nomes.'
p236
F0.48007935851918326
sS'Inner Circle, Shabba Ranks, Chakka Demus & Pliers e o fluminense Cidade Negra prometem levar a ebulicao as areias das praias do Gonzaga e da Barra.'
p237
F0.34503277967117707
sS'No fundo, a receita e simples: elimine os grooves -bases sonoras encorpadas baseadas no casamento de baixo e bateria-, adicione fortes doses de hip hop e eletronica e passe a falar sobre violencia -o "guntalk"-, sexo facil e baladas homericas.'
p238
F0.41984465132951254
sS'O estilo criado pelos Wailing Wailers de Bob Marley e Peter Tosh viveu seu auge quase ao mesmo tempo em que explodia o movimento punk nas ruas de Londres, circa 77.'
p239
F0.34188172937891387
sS'Na virada dos 90 surgiu uma nova versao do estilo, batizada de dancehall.'
p240
F0.39223227027636803
sS'O reggae domina a primeira etapa do M2.000 Summer Concerts.'
p241
F0.48304589153964794
ssS'mu94de11-a'
p242
(dp243
S'Se consideramos valida esta hipotese, a serenidade de Zedillo, de seu discurso e de sua equipe nao emanariam de uma analise fria da realidade mexicana.'
p244
F0.40436804215159422
sS'Viria da impossibilidade de agir de outra forma e do esgotamento.'
p245
F0.38065944099403226
sS'Presidiram a sua formacao os criterios que classicamente ditam a escolha das equipes governamentais no Mexico: uma dose de lealdade a toda prova; uma pitada de amizade distante, de preferencia universitaria ou dos primeiros escaloes do funcionalismo; varias colheradas de representacao do velho governo, para que o presidente anterior nao se sinta ameacado nem rechacado; e alguns gramas de proximidade a forcas politicas excluidas, mas ainda toleradas.'
p246
F0.57555446306895419
sS'Nem o levante de Chiapas, nem os assassinatos de Luis Donaldo Colosio e Jose Francisco Ruiz Massieu, nem o ceticismo que as eleicoes continuaram gerando, nem as denuncias e as lutas internas do PRI, nem mesmo, em suma, a armadilha legada por Carlos Salinas desembocaram numa visao de ruptura e transformacao.'
p247
F0.5189056743833671
sS'Vem dai a deducao de que, ja que Ernesto Zedillo poderia recorrer a esta alternativa e a descartou, ele simplesmente nao a considerou imprescindivel.'
p248
F0.39528470752104738
sS'O discurso de Zedillo indica problemas e aceita carencias; de nenhuma maneira reflete um reconhecimento da deterioracao do sistema politico e da desesperanca de boa parte da sociedade.'
p249
F0.40002768453475995
sS'Ele incluiu varios trechos felizes, em particular sobre a corrupcao e as fortunas que devem ser feitas fora de seu governo, nao dentro dele; sobre o presidencialismo, o trato com a oposicao e a necessidade de consumar a democratizacao; e, sobretudo, no tocante a reforma do Judiciario.'
p250
F0.40166320883712175
sS'Nem o gabinete, nem a mensagem foram elaborados com um sentido de ruptura com o passado: em nenhum dos dois casos pretendeu-se dar a impressao de que se parte de um senso de crise aguda.'
p251
F0.4318209636051491
sS'Ameacado de morte em varias ocasioes este ano, o sistema politico mexicano conseguiu sobreviver mediante um supremo esforco de unidade e concentracao Depois da insurreicao de Chiapas, dos assassinatos, das divisoes, dos sequestros e das incertezas do primeiro semestre, e das previsoes e fraquezas das semanas que antecederam as eleicoes, o aparelho, o PRI e o governo souberam se unificar e sair garbosos de um transe que ate o final se supunha ser insuperavel.'
p252
F0.48838629050550442
sS'Essa segunda visao e, ao que tudo indica, a que inspirou o presidente Ernesto Zedillo a formar sua equipe de colaboradores e a expor, em seu discurso de posse, no dia 1o de dezembro, seu projeto de governo para os proximos anos.'
p253
F0.41937106841466287
sS'Mas a "sobremesa" revelou que o custo do triunfo foi exorbitante: a Terceira Republica ficou exaurida.'
p254
F0.372677996249965
sS'O programa de Zedillo, assim como seu gabinete e os discursos de posse de todos os seus predecessores, partem do sutil e tradicional jogo de sempre entre continuidade e mudancas em que o sistema mexicano se fundamenta: muda tudo o que e secundario, para que permaneca o essencial.'
p255
F0.50977465620425522
sS'Em 1918, a Franca, ao cabo de quatro anos de guerra, 1 milhao de mortos, o holocausto de Verdun e a quase queda de Paris na batalha da Marne, se impos a maquina de guerra alema.'
p256
F0.46727535054823316
ssS'in96ju18-a'
p257
(dp258
S'Em 1983, foi forcado a renunciar depois de ser responsabilizado pela matanca de centenas de palestinos pelas milicias cristas aliadas de Israel nos campos de refugiados de Sabra e Shatila, em Beirute.'
p259
F0.46312181112785794
sS'Com ou sem Sharon, o gabinete de Netaniahu sera um retrato da frente que o elegeu.'
p260
F0.44543540318737401
sS'JERUSALEM - O novo lider de Israel, Benjamin Netaniahu, conseguiu o apoio de partidos religiosos e de imigrantes russos para formar um novo governo de direita que, os arabes temem, podera interromper o processo de paz no Oriente Medio.'
p261
F0.80859950808262449
sS'O ba Alia, partido de imigrantes da ex-Uniao Sovietica, com sete cadeiras no Knesset, ficaria com a pasta de Industria, Comercio e Imigracao.'
p262
F0.57089922571845009
sS'Seu partido, o Likud, tera quatro ou cinco pastas, inclusive as da Defesa e da Fazenda.'
p263
F0.47513109673319892
sS'O Tsomet, terceiro partido da frente, devera ganhar o Ministerio da Agricultura e Meio Ambiente.'
p264
F0.55001909821692674
sS'O Partido Shas (10 deputados) e o Mafdal (Partido Nacional Religioso, com nove deputados) disputam o Ministerio das Religioes.'
p265
F0.47797332354820332
ssS'op94ab04-a'
p266
(dp267
S'Revelam competencia para expandir suas fortunas e monopolizar o poder absoluto, amordacando o Estado, submetendo as conciliacoes, que reproduzem e ampliam a cultura das aparencias, as bases civis de uma sociedade moderna.'
p268
F0.3512196793431353
sS'Sobre uma crise real, prolongada e devastadora, montou-se uma crise artificial e farsesca.'
p269
F0.48666426339228763
sS'Mas aculam as forcas naturais da economia, reforcando a crise real e inchando a crise artificial.'
p270
F0.31622776601683794
sS'A crise real exprime a multiplicacao geometrica de ardis, de cumplicidades e de malogros dos que mandam.'
p271
F0.4213504858001923
sS'A crise artificial seria o lado pitoresco de um pais que nao e serio entre os que desfrutam, governam e administram.'
p272
F0.34641016151377552
sS'Mostram-se incompetentes para suplantar-se e construir projetos nacionais de desenvolvimento economico vinculados a universalizacao da cidadania e a consolidacao de uma Republica democratica.'
p273
F0.29483094708039359
sS'A crise artificial equivale a um jogo de cartas marcadas.'
p274
F0.372677996249965
ssS'ce94ja21-f'
p275
(dp276
S'O suplente de deputado Feres Nader (PTB-RJ) entrou na lista de perda de mandato na madrugada de quarta para quinta-feira, apos horas de discussao regimental entre Magalhaes e seus assessores.'
p277
F0.41149067773299952
sS'Dos 43 congressistas citados, o relatorio final solicitara as Mesas da Camara e do Senado que prossigam a investigacao sobre 13.'
p278
F0.40237390808147827
sS'Nader e suplente de Fabio Raunheitti, que teve sua perda de mandato requerida.'
p279
F0.52740963163392252
sS'Entre as principais, estao o fim da Comissao do Orcamento e das subvencoes sociais.'
p280
F0.52179393208720359
sS'Numa segunda parte da apresentacao, Magalhaes conceitua o que e decoro parlamentar.'
p281
F0.37573457465108973
sS'Os relatores Roberto Magalhaes (PFL-PE) e Roberto Rollemberg (PMDB-SP) decidiram pedir a cassacao de 18 parlamentares.'
p282
F0.55215763037423271
sS'A solicitacao de perda de mandato de Teixeira foi feita pela Subcomissao de Patrimonio.'
p283
F0.39816652969059779
sS'Na apresentacao, Magalhaes trata de conceituar temas como a etica e a honestidade.'
p284
F0.4032389192727559
ssS'ce94ja21-d'
p285
(dp286
S'Em 1942 Joao Alves se tornava inspetor nacional da Previdencia.'
p287
F0.47673129462279618
sS'Frequentava o Palacio do Catete, viajou com Jango pelo interior da Bahia montando o PTB e nesse partido obteve o primeiro dos seus oito mandatos em 1962.'
p288
F0.40291148201269011
sS'Getulio, a pedido de Landulfo, nomeou-o delegado do Instituto de Aposentadoria e Pensao dos Bancarios da Bahia.'
p289
F0.5244448920732584
sS'Candidato a deputado federal, foi derrotado.'
p290
F0.33333333333333337
sS'Um rosto sem rugas, o de Alves, gracas a plastica da clinica brasiliense Daher.e Joao Alves e chegado a cirurgias corretivas.'
p291
F0.33362306249131962
sS'A Mercedes-Benz cor de ouro comecou a ser usada mesmo para atravessar os 100 metros que separam os anexos 3 e 4 na Camara dos deputados.'
p292
F0.33356219249749552
sS'O poder politico e economico, Brasil afora, criou e aferrou-se a um mundo proprio, com regras e costumes particulares.'
p293
F0.34299717028501769
sS'Na sala do apartamento, acima do piano Schneider e da estatueta de Franz Wagner, esta o retrato de Grace.'
p294
F0.42370171306590088
sS'Ambicioso, Alves frequentava o Palace Hotel, na avenida Chile, o grande ponto de encontro de politicos e poderosos em Salvador.'
p295
F0.51847584736521268
sS'Nascida do amor de Joao com um sobrinha, Maria, Grace foi registrada inicialmente como filha de Carlos Almeida, filho do deputado.'
p296
F0.60438648137423168
sS'Recordou Alves em sua conversa com a Folha: "Eu cobrava do Jango uma alianca com os generais, nao com cabos e soldados."'
p297
F0.42133242030890683
sS'Com Jango chegou ao poder.'
p298
F0.5656854249492379
sS'Que ja foi neta e hoje e filha de Alves.'
p299
F0.3481553119113957
sS'Nos governos militares e ja nos anos 80, ele, na Arena e sucedaneos, se tornaria o homem forte do Orcamento.'
p300
F0.42766860172384985
sS'E o autor da emenda que permite aos medicos a acumulacao de dois cargos.'
p301
F0.33942211665106536
ssS'ce94ja21-e'
p302
(dp303
S'Na presidencia da CPI, somou mais elogios que criticas, alem da subita popularidade, a maior de sua vida publica, iniciada ao entrar no Exercito, em 1943, de onde saiu coronel em 1964 para ser governador bionico do Para.'
p304
F0.28586967313680262
sS'Na CPI, sua atuacao foi ao mesmo tempo energica e bem-humorada.'
p305
F0.30578831486257535
sS'O ex-guerrilheiro Jose Genoino (PT-SP), que trocou presentes com Passarinho no final do ano, conta que a ligacao entre os dois comecou durante o Congresso constituinte, quando o senador presidiu a subcomissao do Estado e Forcas Armadas.'
p306
F0.36666666666666664
sS'Experiente, fez "vazar" algumas informacoes para a imprensa embora mantivesse a proibicao aos demais parlamentares.'
p307
F0.47162110914189931
sS'No trato com a midia eletronica, chega ao requinte de carregar no bolso do paleto um pedaco de cartolina branca.'
p308
F0.27988668610700529
sS'A atuacao de Passarinho na CPI ajuda a deixar cada vez mais distante o tempo dos bilhetes do SNI alertando: "Iminente sequestro".'
p309
F0.27988668610700529
sS'A filmagem de uma superficie branca e indispensavel para o ajuste de cores das cameras.'
p310
F0.28301965507089
sS'Uma qualidade que todos reconhecem em Passarinho, alias, e que sempre assumiu ter sido um homem do regime.'
p311
F0.28284271247461895
sS'Aos 74 anos, em boa forma fisica e mental, conquistou ate uma namorada de 39, a bonita Armenia, gerente do Banco do Brasil.'
p312
F0.32090298129536804
ssS'op94ab01-b'
p313
(dp314
S'que a automacao libera mao-de-obra e o desemprego tende a aumentar cada vez mais.'
p315
F0.31980107453341566
sS'Este nao e mais o grande vilao do ano 90 pos-queda do Muro de Berlim mas um mal necessario que deve ser forte e eficiente.'
p316
F0.27994625547792718
sS'A desculpa e que o mal e estrutural, vem da sociedade industrial!'
p317
F0.32232918561015211
sS'Acabou-se a era da teorizacao sobre a grande fase de paz e de prosperidade que todos sonhamos.'
p318
F0.55829052623908249
sS'Em tudo, para parte da populacao mais nobre, e tudo mesmo: assistencia medica, educacao, saneamento, infra-estrutura, seguranca, moradia, cultura, lazer.'
p319
F0.35575623676894264
sS'Considero o exemplo frances e o mexicano os melhores.'
p320
F0.27272727272727271
sS'A verdade e que nao e o tamanho do Estado que se deve medir, e a qualidade do Estado.'
p321
F0.33593550657351262
sS'Ela e estatizante onde o Estado nao devia estar.'
p322
F0.30151134457776363
sS'A verdade e que o sonho de uma avassaladora onda de prosperidade e de paz, depois do fim da URSS e do desmoronamento do mundo do Leste, nao se concretizou.'
p323
F0.3285091522175248
ssS'op94ab01-a'
p324
(dp325
S'Em vez do ganho automatico e inevitavel com a intermediacao da divida publica, cada banco devera recuperar sua sensibilidade para a economia real, para as atividades de credito e de intermediacao de capitais.'
p326
F0.37921028494152054
sS'A migracao definitiva para uma nova moeda depende ainda da confianca dos agentes na viabilidade de reformar o Estado, o que, por sua vez, esta condicionado a mudancas na Constitucao.'
p327
F0.41166465371081584
sS'A insistencia e a promessa, mantidas ate o final, de que nao haveria surpresas e muito menos congelamentos devem ser comemoradas como um amadurecimento do Estado e da sociedade brasileira.'
p328
F0.42699324622671997
sS'Para derrubar a inflacao, e mante-la baixa, o governo devera gastar somente o que arrecada e a empresa tirar da eficiencia produtiva o motor de seu desenvolvimento.'
p329
F0.50985376329969356
sS'Mas ainda que bancos, empresas e trabalhadores estejam dispostos a enfrentar esses desafios, o esforco tera sido totalmente em vao se a criacao da nova moeda nao passar de mais uma pirotecnia, sem a reforma do Estado que afinal foi, ate mesmo pelo ministro FHC, adiada.'
p330
F0.3735436838188142
sS'Para que a economia volte a fazer sentido como algo real e preciso que, ao mesmo tempo, o governo seja capaz de cumprir suas funcoes sem endividar-se mais e as empresas sejam capazes tambem de cumprir as suas, sem precisar da inflacao e da ciranda financeira.'
p331
F0.38766492091636418
sS'Os ganhos financeiros que muitas vezes camuflam a ineficiencia de uma empresa nada mais sao que a outra face de um governo que precisa financiar-se continuamente em mercados de curtissimo prazo, pagando juros elevadissimos.'
p332
F0.38188130791298669
sS'A passagem de FHC pela pasta da Fazenda tera feito sentido unicamente se se efetivar o processo de reforma do Estado, apenas iniciado, e se tiver servido para despertar na sociedade a consciencia de que a estabilidade e um desafio permanente de todos e nao o efeito magico de uma "paulada".'
p333
F0.43369087411965546
sS'A saida de Fernando Henrique Cardoso do Ministerio da Fazenda talvez facilite, paradoxalmente, a compreensao do que vem a ser afinal uma politica economica entendida como "processo", tanto no bom quanto no mau sentido.'
p334
F0.41079191812887456
ssS'po96fe15-a'
p335
(dp336
S'"Os deputados e os lideres estao com medo da imprensa.'
p337
F0.49135381491199531
sS'Apesar de ter o apoio de todos os lideres, Luis Eduardo encontra fortes resistencias dos deputados.'
p338
F0.49746833816309111
sS'Na avaliacao dos lideres e de Luis Eduardo, a polemica em torno do IPC poderia prejudicar a tramitacao da reforma da Previdencia.'
p339
F0.5725025740766716
sS'Para manter o IPC em seu substitutivo, Euler alegou que o lider do PMDB, Michel Temer (SP), tinha sofrido pressoes de varios parlamentares.'
p340
F0.42640143271122083
sS'A lei propondo o fim do IPC preservara direitos adquiridos.'
p341
F0.39999999999999991
sS'Alem disso, o presidente da Central Unica dos Trabalhadores (CUT), Vicente Paulo da Silva, o Vicentinho, foi enfatico ao defender o fim das aposentadorias privilegiadas dos parlamentares.'
p342
F0.43592864528932229
sS'O PFL e o PMDB, os dois maiores partidos da Camara, vao consultar suas bancadas para tomar uma posicao.'
p343
F0.45883146774112349
sS'BRASILIA - Preocupado com a repercussao negativa da manutencao da aposentadoria privilegiada dos parlamentares, o presidente da Camara, Luis Eduardo Magalhaes (PFL-BA), decidiu ontem que o Instituto de Previdencia dos Congressistas (IPC) sera extinto.'
p344
F0.71955241770018519
sS'Imediatamente, todos os lideres foram convocados para uma reuniao no gabinete do presidente da Camara.'
p345
F0.37686733144071588
sS'E a manutencao do instituto poderia ser um pretexto para CUT sair das negociacoes da reforma da Previdencia.'
p346
F0.46709936649691375
ssS'in96ju10-a'
p347
(dp348
S'Walesa, que encabecou o Solidariedade por 10 anos, chegou a presidencia da Republica em 1990.'
p349
F0.43033148291193518
sS'Para Walesa, que voltou simbolicamente a ocupar o cargo de eletricista apos perder, para os ex-comunistas, as eleicoes presidenciais de novembro de 1995, tudo nao passa de uma manobra politica.'
p350
F0.34718253741470678
sS'O chefe do sindicato dos operarios de Gdansk, Jersy Borowczak, disse que os trabalhadores promoverao passeatas e bloquerao estradas.'
p351
F0.56428809364683474
sS'GDANSK, POLONIA - Os estaleiros de Gdansk, no norte da Polonia, de que emergiram ao poder o Sindicato Solidariedade e seu primeiro lider, o ex-eletricista e ex-presidente Lech Walesa, nao resistiram a mare capitalista.'
p352
F0.44038550605054427
sS'Mas, no lugar dos operarios, lutaria pelos estaleiros.'
p353
F0.58834840541455202
sS'Ainda assim, nasce com os mesmos problemas da empresa que faliu: depende de que bancos financiem a construcao dos navios e cubram as eventuais perdas.'
p354
F0.36084391824351608
ssS'mu94de09-a'
p355
(dp356
S'A ideia da Cupula das Americas foi lancada no inicio do ano pelo vice-presidente dos EUA, Al Gore, durante a solenidade de ratificacao do Acordo Norte-Americano de Livre Comercio (Nafta), na Cidade do Mexico.'
p357
F0.45661166048865698
sS'Ate domingo, os presidentes e primeiros-ministros de 34 paises do hesmisferio ocidental (todos menos Cuba) discutirao temas ligados a comercio, democracia e desenvolvimento sustentado.'
p358
F0.56526686371919499
sS'Pressao conjunta dos principais paises da America Latina acabou forcando a inclusao dos temas de comercio na agenda do encontro.'
p359
F0.5539117094069973
sS'Cuba ausente O governo de Cuba nao foi convidado pelos EUA sob a justificativa de que seu presidente, Fidel Castro, nao foi eleito.'
p360
F0.51315800579078541
sS'Entre as decisoes a serem tomadas estao o lancamento de um esforco regional para acabar com o analfabetismo e incentivos para a participacao de empresas privadas no provimento de assistencia medica basica, em particular para criancas.'
p361
F0.62222233444658903
sS'A primeira-dama Hillary Clinton estara coordenando um simposio sobre a situacao das criancas nas Americas, ao qual estarao presentes as primeiras-damas do continente.'
p362
F0.61339561508214813
sS'Alem disso, devem decidir por expansao do intercambio multinacional para a exploracao dos recursos biologicos, medidas de combate ao narcotrafico e "lavagem" de dinheiro e desenvolvimento de esforcos para prevencao de poluicao.'
p363
F0.47259452835945331
sS'Mas a Cupula das Americas em Miami e a primeira em que todos os governantes presentes foram eleitos democraticamente em seus paises e tambem a primeira de que o Canada participa.'
p364
F0.43463356032809364
ssS'mu94ag16-a'
p365
(dp366
S'A Colombia e citada como um dos exemplos de historias de sucesso na diminuicao da taxa de crescimento populacional.'
p367
F0.46816458878452227
sS'Na Tailandia, outro exemplo citado pelo relatorio, o numero medio de criancas por mulher, caiu de seis, na decada de 60, para 3,7 em 1980, chegando a 2,1 em 1991.'
p368
F0.46810740651409344
sS'Por maior poder as mulheres, a ONU entende a igualdade de oportunidades de escolher quando casar, ter filhos, arrumar empregos e ter amplo acesso aos varios niveis de educacao.'
p369
F0.6184722330516127
sS'Lancado anualmente pelo Fundo de Populacao da ONU, o documento aponta o maior poder de decisao das mulheres como fundamental para se chegar a taxas moderadas de crescimento populacional.'
p370
F0.51951904394673043
sS'Segundo projecoes da ONU, a populacao mundial devera chegar a 8,5 bilhoes em 2025 e a 10 bilhoes, em 2050.'
p371
F0.65795169495976902
ssS'mu94de02-a'
p372
(dp373
S'Prometeu tirar a aposentadoria do projeto de Orcamento e preparar uma lei so sobre o assunto.'
p374
F0.45883146774112349
sS'Em meio a pedidos da oposicao para que renunciasse, o premie teve uma reuniao com as centrais sindicais em busca de um acordo que lhe permitisse aprovar seu projeto de Orcamento e prolongar a sobrevida de seu gabinete.'
p375
F0.33730961708462709
sS'O primeiro-ministro italiano, Silvio Berlusconi, fez ontem acordo com as centrais sindicais do pais e conseguiu evitar a greve geral marcada para hoje.'
p376
F0.37686733144071588
sS'Berlusconi reafirmou sua opiniao de que e vitima de um complo politico por parte dos juizes da Operacao Maos Limpas.'
p377
F0.37219368415938836
sS'O projeto de Orcamento para 1995 de Berlusconi -cuja principal promessa de campanha foi acabar com o deficit publico (US$ 86 bilhoes em 93)- previa drasticos cortes no sistema previdenciario.'
p378
F0.47140452079103162
sS'"Eu nao poderia ficar neste pais se eu tivesse que ser acusado por esses feitos porque eu ficaria com vergonha de encontrar as pessoas na rua", disse.'
p379
F0.74740931868365978
sS'Na semana passada, ja acossado por divergencias dentro do gabinete, Berlusconi foi notificado de que estava sendo investigado em um caso de suborno a agentes do fisco.'
p380
F0.47684380643523222
sS'Berlusconi disse que pretende depor em Milao e que dara uma entrevista coletiva logo depois.'
p381
F0.33384893044479425
ssS'po96fe28-a'
p382
(dp383
S'Pelo projeto de extincao do IPC, que deve ser votado dia 6 de marco, os parlamentares que ja cumpriram os requisitos para a aposentadoria - oito anos de mandato e 50 de idade - poderao optar pelo beneficio ou ter suas contribuicoes ressarcidas.'
p384
F0.49685607523562952
sS'A irritacao da CUT com o deputado e tao grande, que a central elaborou documento - entregue de manha a Luis Eduardo - onde sao feitos ataques a Euler Ribeiro.'
p385
F0.35646552311960317
sS'Todos eles defenderam a criacao de um sistema unico de Previdencia para os trabalhadores privados e do setor publico.'
p386
F0.43825049008927769
sS'Anteontem a noite, o relator procurou Luis Eduardo, para perguntar se sua presenca seria importante, pois estava querendo ir a Manaus, participar das comemoracoes do centenario do Teatro Amazonas, que contaram com a presenca do presidente Fernando Henrique.'
p387
F0.38135638490484502
sS'E foi diante dessa plateia que Vicentinho fez criticas veementes ao substitutivo do deputado Euler Ribeiro (PMDB-AM), alem de defender o fim imediato do Instituto de Previdencia dos Congressistas (IPC).'
p388
F0.51189069688899147
sS'E, tambem ontem, apresentou aos lideres de todos os partidos o projeto de lei que extingue o IPC.'
p389
F0.36196138299651343
sS'Os outros receberao o dinheiro de volta e os que ja gozam do beneficio passarao a ser pagos pelo Tesouro Nacional.'
p390
F0.41239304942116128
sS'Logo em seguida, porem, ao perceber que o clima nao era favoravel, cancelou a audiencia publica que seria feita hoje, sobre a aposentadoria dos parlamentares.'
p391
F0.43549417035569277
sS'O presidente da Camara tambem esta indignado com Euler Ribeiro, que pediu para nao comparecer a audiencia publica da Previdencia.'
p392
F0.57792049181670313
sS'Apesar de criticar o substitutivo de Euler Ribeiro, Vicentinho enumerou os avancos conquistados pelas centrais sindicais na reforma da Previdencia - como a manutencao do teto de 10 salarios minimos para a aposentadoria, a permanencia da aposentadoria especial de professores e trabalhadores rurais e a criacao da gestao quadripartite.'
p393
F0.48653363279984113
sS'BRASILIA - O presidente da Central Unica dos Trabalhadores (CUT), Vicente Paulo da Silva, o Vicentinho, foi a grande estrela, ontem, na audiencia publica realizada no plenario da Camara dos Deputados, sobre a reforma da Previdencia.'
p394
F0.46265194557299227
ssS'in96fe13-a'
p395
(dp396
S'De volta ao aeroporto, Silvana soube que seria reembarcada para Sao Paulo no voo noturno da Alitalia.'
p397
F0.24253562503633297
sS'Dois episodios que mudaram da agua para o vinho o tratamento dispensado a moca morena das Alagoas, que ontem a tarde pode ser recebida e abracada calorosamente por Davide, sua mae e sua irma no aeroporto Linate de Milao, de onde seguiram para Brescia.'
p398
F0.37733330450926261
sS'A resposta a esse pedido de socorro chegou com um conselho de Davide, o italiano de 30 anos que a alagoana conhecera em Maceio ha seis anos.'
p399
F0.40089186286863654
sS'Silvana seguiu o conselho, mas no hospital, depois de varios exames, os medicos disseram que ela nao tinha nada, era mais saudavel do que um peixe.'
p400
F0.41833001326703778
sS'A ela, Silvana pediu que informasse aos Parziale de Brescia do drama que estava vivendo no aeroporto romano.'
p401
F0.27950849718747373
sS'Depois de permanecer retida e isolada por quase 30 horas numa sala do posto policial do Leonardo da Vinci, aeroporto romano de Fiumicino, Silvana, 29 anos, artesa e empregada num escritorio de advocacia em Caraguatatuba, Sao Paulo, acompanhada de suas tres criancas - Silvia, 11 anos, filha de um pai brasileiro; Barbara, 5, e Lucas, 8 meses, filhos de Davide Parziale, que conheceu ha 6 anos quando o italiano trabalhava como pintor na cidade paulista, foi finalmente autorizada a terminar sua aventura em Brescia, como hospede da familia Parziale.'
p402
F0.39752319599996261
sS'As 30 horas mais longas e angustiantes da vida de Silvana - como ela qualificou sua detencao no aeroporto de Roma - comecaram as 7 horas de domingo, quando se apresentou, com os tres filhos, ao controle de passaportes da policia italiana.'
p403
F0.34783279649996729
sS'Nenhum dos policiais quis comunicar-se com os numeros de telefones da familia Parziale.'
p404
F0.25451390519031108
sS'A presenca de uma jovem mulata, com criancas em idades de adocao, foi suficiente para tornar os policiais romanos suspeitosos, exigentes e intrataveis.'
p405
F0.38490017945975052
sS'ROMA - O rigor da policia do aeroporto internacional de Roma nao impediu que Silvana Saturnina Santos - uma alagoana esperta - chegasse a Brescia, perto de Milao, no norte da Italia, para apresentar o pequeno Lucas, de oito meses, ao pai italiano de dois de seus filhos.'
p406
F0.54410718758250864
sS'A alagoana comecou a vencer sua guerra contra a intolerancia da policia italiana recorrendo a uma espanhola que conhecera no voo da Alitalia de Sao Paulo a Roma.'
p407
F0.48304589153964789
sS'Em vao, Silvana tentou explicar, em portugues, que viajava pela primeira vez a Italia a convite do pai e dos avos italianos de Barbara e Lucas, que seria hospedada na casa deles de Brescia.'
p408
F0.43915503282683988
sS'De onde ouviu tambem os diversos avisos lancados pelos alto-falantes de que o voo da Alitalia nao podia mais retardar sua decolagem.'
p409
F0.2022599587389726
sS'Com a desculpa de comprar agua e biscoitos para os filhos, obteve autorizacao para sair do isolamento - e esconder-se da policia, por mais de tres horas, dentro das lojas do aeroporto.'
p410
F0.596359925959418
sS'Sem qualquer queixa contra o pessoal da companhia aerea, ontem a noite, falando pelo telefone da casa dos pais de Davide Parziale em Brescia, Silvana nao queria esquecer os momentos de discriminacao, humilhacao e de toda sorte de descortesias que viveu no aeroporto ate a manha de ontem,quando seu caso se tornou noticia da primeira pagina do Corriere della Sera e o consulado geral do Brasil em Roma procurou saber do inspetor Pronabi, da policia do aeroporto Leonardo da Vinci, que tratamento estava sendo dispensado a cidada brasileira Silvana Saturnino Santos, mae de duas criancas com direito a cidadania italiana.'
p411
F0.45216193798250598
sS'Esquecendo que a Italia nao exige vistos de entrada nos passaportes dos cidadaos brasileiros, sem levar em conta o fato de que Silvana possuia quatro passagens com data marcada (o proximo 8 maio) de volta ao Brasil e uma documentacao que confirmava a paternidade italiana de Barbara e Lucas, os policiais insistiam numa unica exigencia: que a brasileira exibisse US$ 1.000, quantia que consideravam indispensavel para as despesas de uma breve estadia na Italia.'
p412
F0.41177232982912199
ssS'in96fe14-a'
p413
(dp414
S'Pat Buchanan, que segundo pesquisas de boca de urna levou 41% dos votos da chamada direita crista, foi oficialmente consagrado como porta-estandarte da ala mais conservadora do partido, a ala anti-aborto, na qual a Coalizao Crista - grupo que se torna cada vez mais forte desde 1988 - domina um bloco de eleitores muito bem organizados.'
p415
F0.29713345198460622
sS'Como era esperado, o senador Bob Dole ganhou, com 26% dos votos, mas teve uma vantagem de apenas 3 pontos percentuais sobre o segundo lugar.'
p416
F0.29629629629629628
sS'O terceiro lugar de Lamar Alexander, que alem de ex-governador foi secretario de Educacao no governo de George Bush, nao deixa de consagrar o unico candidato que procurou nao basear toda a sua campanha em anuncios de televisao negativos (criticando os outros candidatos).'
p417
F0.43320011272198167
sS'"Reduziu o campo de pre-candidatos de nove para quatro, talvez cinco, mas dificilmente Gramm se recuperara."'
p418
F0.27777777777777785
sS'Ate mesmo o ex-comentarista de televisao Pat Buchanan se surpreendeu com seus 23% de votos, que o fizeram ficar parecendo o verdadeiro vencedor.'
p419
F0.31701147915435612
sS'WASHINGTON - O resultado da eleicao primaria no estado americano de Iowa, o primeiro grande passo na marcha para a indicacao do candidato do Partido Republicano que desafiara Bill Clinton na eleicao presidencial de novembro, tem implicacoes muito maiores que a simples divisao dos votos.'
p420
F0.5803810000880093
sS'Em Iowa, eles representaram 35% dos cerca de 100 mil republicanos que votaram, e tambem foram vitais na vitoria de Buchanan em Louisiana, no inicio deste mes.'
p421
F0.25492496425523042
sS'Idosos - A vitoria de Dole, 72 anos, alem de muito apertada, e problematica tambem porque a maior parte de seus eleitores no estado - 41% - tinham mais de 60 anos de idade.'
p422
F0.48105119936474167
sS'O quarto lugar de Steve Forbes, com 10%, mostra que e impossivel comprar a eleicao, e o quinto lugar do senador Phil Gramm, com 9%, coloca um ponto final em sua campanha.'
p423
F0.43617681701712718
sS'Defensor de uma politica isolacionista e protecionista que propoe erguer uma cerca na fronteira dos EUA com o Mexico, para acabar com a imigracao ilegal, Buchanan tambem dominou entre os eleitores mais pobres - aqueles que se sentem mais ameacados pela situacao economica atual dos EUA.'
p424
F0.47245559126153408
ssS'mu94ab09-a'
p425
(dp426
S'Ela cresce quando organizacoes com financiamento insuficiente enviam assistentes sociais com carga excessiva de trabalho a lares infelizes e pobres, para "salvar familias".'
p427
F0.39691115068546706
sS'Quer se trate de abuso fisico, sexual, emocional ou falta de cuidados, muitos casos de destaque assombram a memoria do publico.'
p428
F0.35805743701971643
sS'Em maio do ano passado, assistentes sociais de Monticello, Kentucky (EUA), descobriram que o garotinho Daniel Reynolds apresentava hematomas.'
p429
F0.55182540553646908
sS'Algumas dessas mortes poderiam ter sido impedidas.'
p430
F0.46291004988627571
sS'Em junho os medicos disseram que a perna direita do garoto, que estava quebrada, parecia ter sido torcida ate quebrar.'
p431
F0.69786315779885311
sS'Os casos de abuso e maus-tratos de criancas continuam a chegar com persistencia desalentadora -cerca de 3 milhoes de casos em 1993, segundo um relatorio entregue do Comite Nacional de Prevencao do Abuso Infantil (NCPCA).'
p432
F0.66955588620051931
sS'E este ciclo de maus-tratos e falta de cuidados -os 33% dos relatorios que citam "reincidentes" que ja maltrataram criancas outras vezes- que suscitam o maior ultraje e indignacao.'
p433
F0.35750615503453076
sS'E no inicio de dezembro, segundo a policia e os promotores, Daniel morreu de um soco na cabeca.'
p434
F0.57975090436420285
sS'Problemas insoluveis Desde que um estudo feito em 1962 identificou pela primeira vez a "Sindrome da Crianca Espancada", o plano de combate ao abuso infantil foi modificado repetidas vezes.'
p435
F0.41379310344827591
sS'A crise americana de abuso infantil cresce quando as criancas nascem no mesmo ambiente de pobreza, dependencia de drogas e abuso em que seus pais foram criados.'
p436
F0.4822110248920824
sS'Lisa Steinberg, de Nova York, espancada por seu pai adotivo ate morrer, aos seis anos de idade, de danos cerebrais.'
p437
F0.36487819155788997
sS'E as estatisticas mais recentes sobre abuso de criancas talvez reflitam apenas "50% dos casos que realmente acontecem", diz Philip McClain, dos Centros para o Controle de Enfermidades.'
p438
F0.39223227027636803
ssS'op94ag14-a'
p439
(dp440
S'A leitura atenta das entrevistas de Fernando Henrique Cardoso (candidato pela coligacao do PSDB) e Luiz Inacio Lula da Silva (da alianca liderada pelo PT) a Folha revela muito mais coincidencias do que divergencias.'
p441
F0.41247895569215265
sS'Apontadas as semelhancas e parte de suas causas, fica mais dificil assinalar diferencas realmente de fundo.'
p442
F0.31426968052735443
sS'Ja o discurso de Fernando Henrique Cardoso, embora tambem trate dela, gasta mais palavras no tema da insercao do Brasil no cenario internacional.'
p443
F0.35999999999999999
sS'Bem feitas as contas, a diferenca entre os dois candidatos que, ao menos por ora, sao os favoritos na corrida para o Planalto e muito mais de biografia e de aliancas.'
p444
F0.2739983121755955
sS'Ambos mencionam a reforma tributaria como ponto de partida, o que, de resto, segue uma logica inescapavel: o Estado brasileiro esta em evidente estado falimentar e nao ha governo que possa fazer o que quer que seja se, antes, nao conseguir reorganizar racionalmente as suas fontes de recursos.'
p445
F0.32338083338177731
sS'Ate a formula para a implementacao dessa reforma indispensavel, a negociacao com a sociedade, e semelhante entre os dois candidatos que lideram todas as pesquisas de intencao de voto.'
p446
F0.457495710997814
sS'O sepultamento do comunismo, com a queda do Muro de Berlim em 1989 e a derrocada da Uniao Sovietica em fins de 1991, acabou por tornar muito mais convergentes as posicoes de correntes politicas antes mais distanciadas e das liderancas que as representam nas disputas eleitorais.'
p447
F0.41781451089836674
sS'Para acentuar as semelhancas, a palavra "Estado", com conotacao positiva, foi certamente a mais empregada pelo candidato tucano ao longo da entrevista, acompanhada do enterro retorico do neoliberalismo.'
p448
F0.2651650429449553
sS'Alem disso, o diagnostico sobre os males do Brasil esta feito ha algum tempo.'
p449
F0.33601075251612356
sS'Se estao sendo absolutamente sinceros nessas respostas, o mais provavel e que um venha a precisar muito do outro, seja qual for, entre os dois, aquele que vencer a disputa eleitoral.'
p450
F0.29880715233359839
sS'Ja o candidato tucano aceita a desestatizacao com boa vontade.'
p451
F0.26352313834736496
ssS'ce94ab24-e'
p452
(dp453
S'Pelo menos no papel, o CNA promete muito: criar, em dez anos, 2,5 milhoes de empregos, por meio de um programa nacional de obras publicas; construir 1 milhao de casas, em cinco anos; no mesmo prazo, colocar eletricidade em 2,5 milhoes de residencias; prover dez anos de educacao gratis e de qualidade para todos, dentro de meros 365 dias.'
p454
F0.39849375788880914
sS'"O processo de transicao em andamento envolve, talvez, o mais substancial realinhamento de poder politico, militar, social e economico jamais completado em uma mesa de negociacao, em vez de no campo de batalha, incluindo o Oriente Medio, a Europa Oriental e a antiga Uniao Sovietica".'
p455
F0.41659779045053086
sS'Ao primeiro minuto da proxima quarta-feira as nove capitais provinciais da Africa do Sul ouvirao pela primeira vez, ao menos oficialmente, os sons de "Nkosi Sikeleli Afrika" ("Deus Abencoe a Africa").'
p456
F0.39477101697586137
sS'Antes e depois, negros de uma tribo matavam os de outra.'
p457
F0.38624363966821412
sS'Desde que, em 1652, a Companhia Holandesa das Indias Orientais estabeleceu sua primeira colonia na costa sul-africana, brancos e negros amaram odiar-se.'
p458
F0.54845431809534795
sS'Por indefinidos campos de batalha ficaram, nesses quatro anos de dialogo, os corpos de 13.724 pessoas, conforme o mais recente computo da Comissao de Direitos Humanos.'
p459
F0.36710862157118834
sS'O alto nivel de expectativas da maioria negra com a troca de guarda no palacio governamental e admitido pela cupula do CNA.'
p460
F0.31980107453341572
sS'Tarefa tao ciclopica nao se limitou, no entanto, a mesa de negociacao.'
p461
F0.30151134457776363
sS'Mas tampouco ha resposta para a pergunta que o Ramaphosa faz a respeito do futuro imediato: "Seremos capazes de satisfazer tais expectativas?"'
p462
F0.3273268353539886
sS'Pelo menos uma parcela dos brancos comeca a se concentrar em areas do Transvaal e do Estado Livre de Orange, na zona centro-oriental do pais.'
p463
F0.61604110363369746
sS'Ate banqueiros, habitualmente frios, recorrem a retorica incandescente para avaliar a situacao.'
p464
F0.35714285714285715
sS'As eleicoes desta semana sao o ponto de chegada dessa negociacao, um desses raros momentos que de fato merecem a qualificacao de historicos.'
p465
F0.35557950110937975
sS'Em seus 1,22 milhao de quilometros quadrados, vao ensaiar uma dificil convivencia 40,4 milhoes de pessoas, divididas entre 5,1 milhoes de brancos, 3,4 milhoes de mesticos e 30,7 milhoes de negros, por sua vez, subdividos em 11 etnias diferentes.'
p466
F0.35120668762232371
ssS'po96fe07-b'
p467
(dp468
S'"Sempre lamentei te-lo derrotado, mas nao fui so eu.'
p469
F0.48653363279984113
sS'Nelson Carneiro atribuiu a derrota nas eleicoes de 54 para a Camara de Deputados por sua defesa obstinada ao divorcio.'
p470
F0.35502347340234658
sS'Nascido em Salvador, em 1910, Nelson cursou Direito na Universidade Federal da Bahia.'
p471
F0.82807867121082512
sS'Nem mesmo o entao candidato a presidencia da Republica, Fernando Henrique Cardoso, escapou da magoa do senador, que o criticou pela omissao diante do fato.'
p472
F0.3407771005482389
sS'Tambem nao perdoou o fato de uma emissora de TV ter registrado a imagem de Marcello votando apenas em Artur da Tavola para o Senado.'
p473
F0.33994470682450251
sS'Com esse perfil, os 65 anos de vida publica de Nelson Carneiro se confundem com a historia politica do pais.'
p474
F0.4103049699311091
sS'"Ele foi a imagem do homem dedicado ao parlamento", disse ontem o presidente do Congresso Nacional, senador Jose Sarney (PMDB-AP).'
p475
F0.41502867831964485
sS'Eleito vice-lider do PSD, presidiu a Comissao Parlamentar de Inquerito (CPI) sobre o petroleo e a Comissao de Constituicao e Justica da Camara.'
p476
F0.39757328397294539
sS'A conquista ocorreu depois de 30 anos de luta contra a Igreja Catolica, apesar de catolico praticante fervoroso, devoto de Nosso Senhor do Bonfim - como todo bom baiano - e ate coroinha durante a infancia.'
p477
F0.41036467732879794
sS'Mas Artur da Tavola nao quis relembrar as criticas feitas por Nelson ao governador do Rio, Marcello Alencar, no discurso de despedida do Senado, quando chamou o governador de "judas carioca", e o acusou de prejudicar sua tentativa de reeleicao.'
p478
F0.47751150915900475
sS'Entre as provas, o senador citou a ausencia de outdoors com fotos suas - apesar de ter posado ao lado de Marcello e Tavola - e chegou a dizer que nao era convidado a participar dos eventos de Fernando Henrique que, junto com Marcello e Tavola, percorria o Rio no aviao do "feliz banqueiro" Ronaldo Cesar Coelho.'
p479
F0.41900095197124432
sS'Nas eleicoes para o Congresso, em 1978, foi ele quem desafiou a proibicao de se fazer campanha nas ruas, ao comandar uma passeata na Avenida Rio Branco, enfrentando o cerco de mais de mil soldados.'
p480
F0.40467232413704873
sS'Tambem foi autor do projeto que previa a equiparacao da mulher casado ao marido (Lei numero 4.121) e do que assegurava pensao aos filhos de qualquer condicao.'
p481
F0.3787657553862423
sS'Depois do incidente, Nelson apoiou, no segundo turno, a candidatura do pedetista Anthony Garotinho ao governo do estado.'
p482
F0.3872983346207417
sS'Em setembro de 61, apos a renuncia do presidente Janio Quadros, relatou e conduziu a votacao da Emenda Constitucional numero 4, que instituiu o parlamentarismo no Brasil.'
p483
F0.35233213170882205
ssS'ce94ab24-f'
p484
(dp485
S'Em 1991, junho, e abolida a lei que reservava 87% do territorio a minoria branca e que proibia os negros de morar nas cidades.'
p486
F0.63867801318017359
sS'Em abril do ano passado, num gesto surpreendente, disse adeus a seu passado racista e pediu desculpas pelo apartheid que vigorou de 1948 a 1989.'
p487
F0.38976226919867152
sS'Botha renuncia e De Klerk assume interinamente a Presidencia em 15 de agosto de 1989.'
p488
F0.40188985262019589
sS'Descendente de africaners (colonizadores de origem holandesa), De Klerk nasceu em Johannesburgo, em 18 de marco de 1936.'
p489
F0.36499819754421564
sS'Frederik Willem de Klerk, 58, passara a historia como o politico que, ao lado de Nelson Mandela, tornou real o sonho de tentar por fim ao apartheid na Africa do Sul.'
p490
F0.3582871819500093
sS'Ainda em junho e extinta a lei que classificava a populacao segundo a raca e e decretado o fim oficial do apartheid.'
p491
F0.52099490680930483
sS'Ocupou diversos ministerios e, como titular da Educacao, cargo para o qual foi nomeado em 1984, defendeu a segregacao racial nas escolas.'
p492
F0.45226701686664539
sS'A partir de 1987, ele vestiu a camisa de liberal, numa atitude pragmatica diante da crise economica, agravada por sancoes impostas pelos EUA e ONU desde 1977 e pela saida de empresas do pais.'
p493
F0.38352891806581685
sS'Em fevereiro, De Klerk legaliza cerca de 30 grupos politicos, entre eles o Congresso Nacional Africano (CNA), banido na decada de 60, e o Partido Comunista, ilegal desde 1950.'
p494
F0.4131671220064233
ssS'op94ab18-a'
p495
(dp496
S'Nao so a equacao pessoal comprovou a ressonancia de suas diretrizes politicas na massa dos excluidos, dos assalariados, dos estratos medios em proletarizacao, nas entidades radicais empenhadas na renovacao da economia, da sociedade e da cultura, como reforcou a consciencia crucial: ou Lula ou a repeticao do passado com alteracoes cosmeticas.'
p497
F0.37678494378840038
sS'A sorte de Lula esta lancada e, com ela, os papeis construtivos do PT e seus aliados, neste momento decisivo.'
p498
F0.35856858280031806
sS'A esquerda autentica compreende a natureza de seus compromissos com a transformacao da ordem e a criacao de uma sociedade nova.'
p499
F0.35631341210920314
sS'Para o presente e o futuro, contudo, e essencial romper com o passado, com o fisiologismo, com o clientelismo e o privatismo de conteudo patrimonialista, com o oportunismo politico (tao destrutivo na direita, quanto no centro-esquerda), com as conciliacoes pelo alto contra o povo.'
p500
F0.42004127944129072
sS'Esta eleicao ergue uma pergunta: convem ao PT ganha-la ou encaixa-la na acumulacao crescente de dinamismos de desgaste da ordem, que o favorece?'
p501
F0.34016802570830451
sS'Se assumo a responsabilidade de um debate publico, faco-o pensando no que significa o PT no cenario tragico e opressivo em que ele se insere.'
p502
F0.30901572157476287
ssS'ce94ab24-c'
p503
(dp504
S'A modernidade que lhes interessava seria, entao, mais de conteudo que de forma, mais de ordem que de impeto destrutivo -o contrario do que pregava a maioria das vanguardas internacionais.'
p505
F0.47172817652486326
sS'Ainda que comece em 1922, com a Semana de Arte Moderna de Sao Paulo, o segundo modulo da "Bienal Brasil Seculo 20" tem origem em 1917, ano em que Anita Malfatti (1896-1964) faz sua primeira exposicao individual em Sao Paulo.'
p506
F0.52740963163392252
sS'Mas, segundo a curadora do modulo, Annateresa Fabris, a modernidade que Sao Paulo comecaria a adotar nao e a prescrita por Malfatti.'
p507
F0.64168894791974784
sS'", em que condena a adesao de Malfatti ao cubismo, futurismo "e outros ismos" que entao surgiam na Europa.'
p508
F0.36187343222787299
sS'"A estetica de Brecheret nao chocava o senso comum da epoca", diz Annateresa.'
p509
F0.36313651960128146
sS'Mario de Andrade o converte em prototipo do artista nacional.'
p510
F0.372677996249965
sS'Desse periodo em diante, julga Aguilar, a arte moderna brasileira "entra num figurativismo cada vez mais dogmatico".'
p511
F0.43386091563731233
sS'Com influencia inicial do expressionismo alemao, Malfatti vai contra a tendencia neoclassica da arte brasileira do inicio do seculo.'
p512
F0.82368776758037288
sS'Para Annateresa, esse discurso impediu a avaliacao de caracteristicas importantes nas obras de Anita, Tarsila, Di Cavalcanti (1897-1976), Vicente do Rego Monteiro (1899-1970), Lasar Segall (1891-1957) e Oswaldo Goeldi (1895-1961).'
p513
F0.47162110914189931
sS'Para Annateresa, Brecheret lancava mao de referencias do passado, em dialogo com a tradicao da escultura, e isso lhe rendeu sucesso entre os criticos paulistas.'
p514
F0.34743961448615168
sS'Para o curador da Fundacao Bienal, Nelson Aguilar, Lobato ficou chocado com a economia de tracos e a franqueza de cores de sua pintura.'
p515
F0.41957319583913683
sS'"Ele temia que a temporada que Tarsila passaria em Paris fosse \'despersonalizar\' sua linguagem artistica."'
p516
F0.33295604590814593
ssS'po96fe09-a'
p517
(dp518
S'Ontem mesmo, o presidente Fernando Henrique Cardoso fez questao de deixar isto claro, ao receber no Palacio do Planalto os presidentes da Forca Sindical, Luis Antonio de Medeiros, e da Central Unica dos Trabalhadores, Vicente Paulo da Silva, o Vicentinho.'
p519
F0.50596442562694066
sS'BRASILIA - Os sucessivos atrasos na votacao da reforma da Previdencia levaram ontem o presidente da Camara, Luis Eduardo Magalhaes (PFL-BA) a irritacao: ele decidiu pular a etapa da Comissao Especial e remeteu a emenda para ser debatida no plenario.'
p520
F0.6064784348631227
sS'No telefonema, o presidente da Camara contou que a situacao estava insustentavel e que a Casa corria o risco de sair do processo desmoralizada, por criar uma confusao depois que o governo e as centrais sindicais tinham chegado a um acordo.'
p521
F0.42505223079887944
sS'Os lideres dos partidos do governo comecaram ontem mesmo a convocar suas bancadas.'
p522
F0.42700841014689905
sS'A decisao de enviar a reforma diretamente para o plenario nao muda o acordo firmado com as centrais sindicais.'
p523
F0.89973541084243736
sS'O cronograma preve a leitura do relatorio de Euler na terca-feira, para que o plenario possa discuti-lo e vota-lo em primeiro turno ja no inicio de marco.'
p524
F0.44827586206896558
sS'Ja os aliados temem perder o controle da situacao, a exemplo do que ocorreu na votacao do projeto sobre a contribuicao previdenciaria dos inativos do servico publico, quando o governo foi derrotado.'
p525
F0.50917507721731559
sS'O presidente da Camara nao fez mais do que cumprir a ameaca que havia feito, ha tempos, a Jair e Euler.'
p526
F0.44
sS'Luis Eduardo contou que o presidente da Comissao Especial, deputado Jair Soares (PFL-RS), havia renunciado, e que o relator tambem ameacava sair.'
p527
F0.42460388780422342
ssS'po96fe09-b'
p528
(dp529
S'Pensando estar livre, Jair voltou a sala da comissao, onde foi apoiado por membros do PT, PDT, PC do B e PPS, que o receberam com aplausos.'
p530
F0.36985705379580924
sS'Minutos depois de saber que Jair iria acatar um requerimento do lider do PDT, Miro Teixeira (RJ) - pedindo tempo, pelo menos ate terca-feira, para que o plenario da comissao analisasse os pontos novos do relatorio -, Inocencio comecou a agredir verbalmente o colega.'
p531
F0.39942979301018539
sS'No final, ja na sala da Comissao de Constituicao e Justica (CCJ), o deputado se viu cercado por mais de 100 jornalistas e cinegrafistas, aos quais fez um relato de todo o processo de aprovacao da reforma.'
p532
F0.78725017996174662
sS'Imediatamente, Jair suspendeu os trabalhos e saiu do plenario, seguido pelo lider do governo e por Inocencio.'
p533
F0.31497039417435602
sS'Quando conseguiu voltar ao plenario e, finalmente, renunciar, Jair foi novamente recebido com aplausos pela oposicao.'
p534
F0.54570515633174921
sS'Com este grito de independencia e varios outros palavroes, o presidente da Comissao Especial da reforma da Previdencia, deputado Jair Soares (sem partido-RS), renunciou ontem ao cargo e impediu que o relatorio do deputado Euler Ribeiro (PMDB-AM) fosse votado.'
p535
F0.52844125653009222
sS'Sentou-se, mas, antes de renunciar, Inocencio o arrancou da cadeira, para outra conversa na sala da lideranca.'
p536
F0.40883815970729948
sS'Eu poderia ter nomeado a mim mesmo para a presidencia da comissao!"'
p537
F0.3642156795423418
sS'Eu sou o lider do maior partido da Camara e voce vai fazer!"'
p538
F0.37796447300922731
sS'O que o lider do PFL desconhecia e que a atitude de Jair era um protesto contra tudo - inclusive contra o presidente Fernando Henrique.'
p539
F0.48391079087419847
sS'A atitude de Jair foi uma resposta as pressoes do lider do PFL, Inocencio Oliveira (PFL-PE), para que ele desrespeitasse o regimento interno da Camara e abrisse o processo de votacao de qualquer maneira.'
p540
F0.50571163299281119
sS'Nao preciso de presidencia, de PFL, de m.... nenhuma!'
p541
F0.32302914123489929
sS'E ainda com esperancas de reverter a decisao de Jair, impedia o deputado de voltar a sala da comissao e renunciar oficialmente.'
p542
F0.38277950117547638
ssS'op94ab10-a'
p543
(dp544
S'FHC parece ter-se beneficiado da renuncia de Paulo Maluf a candidatura, embora parte dos votos potenciais do prefeito paulistano tenham claramente migrado igualmente para Lula.'
p545
F0.3481553119113957
sS'Fica tambem evidente que uma eventual candidatura Sarney pelo PMDB continua mais forte do que a de Quercia, tira mais votos de Lula do que de FHC e e a que mais ameaca o cenario suposto de bipolarizacao.'
p546
F0.38202872398020798
sS'Mais exatamente, entre Luiz Inacio Lula da Silva (do PT) e Fernando Henrique Cardoso (do PSDB).'
p547
F0.372677996249965
sS'Mas a reducao do leque de candidaturas viaveis sugere que as possibilidades de grandes alteracoes no quadro sao menos provaveis.'
p548
F0.35032452487268534
sS'A mais recente pesquisa do Datafolha sobre a intencao de voto para a Presidencia sugere um quadro radicalmente diferente do que havia no pleito anterior, na mesma altura do ano.'
p549
F0.36273812505500586
sS'Se, mesmo com a inflacao indecentemente alta, o ex-ministro melhorou sua posicao, o logico e supor que crescera ainda mais se a inflacao ceder bastante, como a maioria dos analistas supoe que ocorrera com a introducao do real.'
p550
F0.37370465934182978
sS'Reforca-se, em consequencia, a sensacao de que muito dificilmente Lula deixara de estar concorrendo no turno final.'
p551
F0.33508312663335638
sS'Em vez de um numeroso leque de candidatos com alguma ou muita chance de passar para o turno final, desta vez o que a pesquisa indica e uma disputa bipolar.'
p552
F0.34641016151377541
ssS'in96fe29-a'
p553
(dp554
S'Na entrevista a TV BBC divulgada em novembro passado, Diana admitiu ter cometido adulterio com o capitao James Hewitt.'
p555
F0.47269011874744082
sS'Diana vai continuar morando no Palacio de Kesington, tera um escritorio no Palacio de Saint James, podera opinar em todas as decisoes sobre os filhos e mantera o titulo de princesa de Gales, anunciou uma porta-voz da princesa.'
p556
F0.51455297566408531
sS'Afinal, Henrique VIII rompeu com o Vaticano, criando a Igreja da Inglaterra, em 1534, para se divorciar de Catarina de Aragao, a primeira de suas seis esposas.'
p557
F0.39036002917941326
sS'Tanto o Palacio de Buckingham quanto o governo britanico foram aparentemente tomados de surpresa pelo anuncio, feito por Jane Atkinson, porta-voz de Diana, em declaracao exclusiva a radio e televisao britanica BBC: "A princesa de Gales concordou com o pedido de divorcio do principe Charles.'
p558
F0.45679247321835442
sS'Como o rei ou rainha chefia a Igreja Anglicana, Charles deve acumular este cargo quando subir ao trono.'
p559
F0.66864784983573167
sS'Sem duvida, a princesa gosta de brincar com fogo e de manipular a midia.'
p560
F0.42089054035481449
sS'Igreja - A maior autoridade eclesiastica da Igreja da Inglaterra, o arcebispo da Cantuaria, George Carey, "espera e acredita que isto seja do melhor interesse de todos os envolvidos", comentou laconicamente um assessor.'
p561
F0.57325949112001484
sS'A princesa continuara a se envolver em todas as decisoes relativas aos filhos e permanecera no Palacio de Kesington, mantendo escritorios no Palacio de Saint James.'
p562
F0.4068667356033675
sS'O problema e que atualmente a lei proibe que uma pessoa divorciada chefie a Igreja.'
p563
F0.46849213698717818
ssS'po96ab09-a'
p564
(dp565
S'O deputado Augusto Carvalho (PPS-DF) fez o levantamento dos gastos da Camara com imoveis no Siafi, o sistema informatizado que controla todos os gastos publicos da Uniao.'
p566
F0.46056618647183822
sS'A conta envolve desde reformas em apartamentos ate a compra de eletrodomesticos e o pagamento de empresas que fazem vigilancia e limpeza nos predios.'
p567
F0.43195939772483105
sS'Carvalho diz que o valor que e gasto na manutencao dos apartamentos funcionais e no pagamento do auxilio-moradia e muito alto.'
p568
F0.46790827089573095
sS'Optou entao por entregar o valor recebido a uma creche de Brasilia.'
p569
F0.71443450831176025
sS'Com esse dinheiro e possivelcomprar 68 apartamentos de quatro quartos em areas nobres de Brasilia.'
p570
F0.51449575542752657
sS'Os maiores gastos sao com despesas que em predios normais caberiam ao condominio, como a contratacao de empresas de vigilancia, limpeza e zeladoria dos imoveis.'
p571
F0.43988591938257199
ssS'in96fe29-b'
p572
(dp573
S'Os cubanos decidiram - nao se sabe ainda em que nivel administrativo ou governamental - derrubar os dois Cessna com quatro tripulantes da organizacao anticastrista Irmaos pelo Resgate apesar de a chamada Convencao de Chicago, sobre seguranca no espaco aereo, rezar que avioes civis nao podem ser alvo de ataques militares em circunstancia alguma.'
p574
F0.35137019269127184
sS'Para o chanceler cubano, o Conselho esta sendo transformado pelos EUA "numa especie de tribunal universal para julgar qualquer pais que desobedeca a seus designios"; tornou-se "uma dependencia do Departamento de Estado".'
p575
F0.40666285422027915
sS'O chanceler cubano tambem afirmou que os EUA serao responsabilizados por quaisquer "novas provocacao e violacoes" do espaco aereo cubano.'
p576
F0.58094750193111255
sS'Mas o governo de Cuba disse ontem que "e necessario definir bem o que e um aviao civil, pois com avioes supostamente civis procedentes dos Estados Unidos se cometeram muitos crimes contra nosso pais".'
p577
F0.354686214356698
sS'O Ministerio cubano das Relacoes Exteriores tambem considerou que "a atuacao do Conselho de Seguranca da ONU demonstra o preco que representa, para os paises pequenos, viver num mundo unipolar sob a hegemonia dos Estados Unidos", encarecendo "a urgencia de trabalhar pela democratizacao das Nacoes Unidas e para encontrar formas de tornar mais representativo e imparcial o Conselho de Seguranca".'
p578
F0.52621899995277954
sS'Negociando a apresentacao das razoes cubanas na Assembleia Geral, e nao no Conselho, Cuba jogou suas cartas na tese da defesa da soberania de seu espaco aereo e de suas aguas territoriais, frequentemente invadidos por organizacoes anticastristas sediadas nos EUA.'
p579
F0.37796447300922725
sS'Adversidade - Uma circunstancia adversa, para os cubanos, foi o fato de o Conselho estar (ate amanha), sob presidencia americana.'
p580
F0.29261523994305977
sS'Presidindo os trabalhos, a embaixadora americana, Madeleine Albright, nao conseguiu na terca-feira a desejada "resolucao" condenando Cuba, mas manteve o Conselho reunido por 16 horas ate extrair dele pelo menos a "declaracao" mais branda - apesar do pedido cubano de que Robaina fosse ouvido primeiro.'
p581
F0.27760292414333837
sS'"O que nao discutiremos com este organismo [o Conselho de Seguranca] nem com especialistas de organizacao alguma e nosso direito e nosso dever de proteger a soberania de nosso pais", disse Robaina ao chegar a Nova Iorque e anunciar que seu governo deseja que a investigacao encomendada pelo Conselho a Organizacao de Aviacao Civil Internacional (OACI) se estenda a incursoes anteriores dos anticastristas.'
p582
F0.4749326011233132
sS'NACOES UNIDAS - Decidido a capitalizar no terreno diplomatico a crise surgida com a derrubada de dois avioes civis americanos, no ultimo sabado, o governo de Cuba - visado na terca-feira por uma declaracao do Conselho de Seguranca da ONU que lamentava a derrubada dos avioes - pediu a democratizacao do organismo multilateral e denunciou a ascendencia politica que nele exercem as potencias atomicas, e em especial os Estados Unidos.'
p583
F0.50670670798991846
ssS'po96ju13-a'
p584
(dp585
S'Os indicios constatados pelos peritos derrubam a versao do superintendente do shopping, David Rocha que, anteontem, garantia que a rede de gas de cozinha era externa.'
p586
F0.47625047625071437
sS'OSASCO, SP - O primeiro levantamento feito pelos peritos do Instituto de Criminalistica de Osasco no local da tragedia aponta para uma provavel negligencia da direcao do Osasco Plaza Shopping.'
p587
F0.44565651782158644
sS'Como antecipou o JORNAL DO BRASIL, as explosoes foram provocadas por vazamento de gas liquefeito de petroleo (GLP, gas de cozinha) numa tubulacao subterranea que passava por dentro de uma galeria - conhecida por caixa perdida - construida a revelia do projeto original e que se estendia, entre o piso e o aterro, por toda a estrutura do shopping.'
p588
F0.54671547838865231
sS'Apesar dos indicios de negligencia, os peritos tem evitado acusacoes precipitadas.'
p589
F0.4351941398892446
sS'A rede de distribuicao do gas sai de uma galeria construida na lateral do predio - de frente para a Rua Batista de Azevedo -, em baixo do estacionamento.'
p590
F0.49691095049431611
sS'A duvida, no entanto, sera tirada hoje por uma pericia a ser feita por tecnicos da Companhia de Tecnologia de Saneamento Ambiental (Cetesb), que ontem coletaram amostras de gas na area atingida.'
p591
F0.41265363062491583
sS'O dia de ontem foi marcado por informacoes desencontradas sobre numeros de vitimas fatais na tragedia de Osasco.'
p592
F0.4351941398892446
sS'"Nos precisamos analisar as plantas para ver de quem e a responsabilidade", diz Ronaldo, que ja descarta a possibilidade das explosoes terem sido provocadas por gas metano - que se acumula em decorrencia de materia organica em decomposicao -, conforme a suspeita levantada no dia da tragedia.'
p593
F0.39342208910821608
sS'Segundo os peritos, o gas foi vazando ao longo do tempo e formando bolsoes na area subterranea, que nao tinha ventilacao.'
p594
F0.42340489921997049
ssS'in96ab18-b'
p595
(dp596
S'Durante a estadia de Clinton em Toquio, o trabalho da imprensa foi bastante restringido, para evitar o registro de situacoes como o que envolveu o entao presidente George Bush, em 1992 - que vomitou durante uma recepcao.'
p597
F0.39903464779106718
sS'De acordo com analistas politicos, o acordo pode abrir caminho para que o Japao participe no futuro de operacoes militares no exterior (a Constituicao do pais so permite que as Forcas Armadas sejam usadas em defesa propria).'
p598
F0.56244099182140495
sS'Uma outra declaracao, assinada separadamente, amplia a cooperacao em temas globais, incluindo o combate a falta de alimentos, ao terrorismo, a doencas infecciosas e a desastres naturais.'
p599
F0.83258144683007362
sS'Hoje de manha discursa no Parlamento, onde devera explicar o acordo assinado ontem, e a tarde visita uma sucursal da montadora de automoveis americana Chrysler.'
p600
F0.5163977794943222
sS'"Ate agora, os papeis de seguranca dos dois paises eram muito claros - o Japao era um escudo protegendo-se apenas a si proprio e os Estados Unidos eram a espada", comparou Tetsuo Meda, professor de politica da Universidade Internacional de Toquio, para a agencia Reuters.'
p601
F0.36277115980987196
sS'As boas vindas ao presidente americano, que viaja acompanhado da mulher, Hillary Clinton, foram dados pelo imperador Akihito e pela imperatriz Michiko.'
p602
F0.3813850356982369
sS'TOQUIO - O presidente dos Estados Unidos, Bill Clinton, formalizou ontem uma parceria militar mais ativa com o Japao, que passara a partilhar com os EUA a responsabilidade pela defesa do Pacifico.'
p603
F0.5
ssS'mu94de14-a'
p604
(dp605
S'Logo depois do amanhecer do dia 5 de dezembro de 1956, eu fui despertado por uma forte batida na porta.'
p606
F0.39086797998528583
sS'Onze de fevereiro era um dia sem nuvens, de fim de verao, na Cidade do Cabo.'
p607
F0.44536177141512329
sS'E pediu paciencia a populacao para as mudancas que ainda estao por vir.'
p608
F0.64450338663548956
sS"Depois de 45 minutos, Rousseau de fato disse: 'Mandela, nos temos uma ordem judicial para prende-lo."
p609
F0.41030496993110915
sS'Por exigencia da editora, as livrarias sul-africanas so comecaram a vender no final da tarde de ontem "Longa Caminhada para a Liberdade" (Macdonald Purnell, 630 pags., R$ 20), a autobiografia de Nelson Mandela.'
p610
F0.5063549632789327
sS'(...) Eu estava espantado e um pouco assustado.'
p611
F0.51449575542752646
sS'Em 1969, chegou um jovem carcereiro, que parecia particularmente ansioso em me conhecer.'
p612
F0.58536940700496365
sS'Nao foi a unica exigencia voltada a ampliar o impacto de uma obra que, sem publicidade, ja tem garantia de vendas por retratar a vida de um dos politicos mais importantes da atualidade.'
p613
F0.47140452079103168
sS'"Isso foi feito para agradar o enorme publico leitor dos EUA e contrariou, de certa forma, a ideia incial de que o livro deveria ser um registro historico", afirmou.'
p614
F0.41286141192238524
sS'Mandela diz que sua politizacao nao se deu de repente: "O acumulo de mil desfeitas, mil indignidades e mil momentos foram produzindo uma raiva, uma rebeldia, um desejo de lutar contra o sistema que aprisionou meu povo".'
p615
F0.38258247988704835
sS'Minha desconfianca era justificada porque ficamos sabendo que o carcereiro era agente da Boss, agencia de inteligencia secreta da Africa do Sul.'
p616
F0.43852900965351466
sS'Nenhum vizinho ou amigo bate na porta de um jeito tao peremptorio e eu sabia imediatamente que era a policia de seguranca.'
p617
F0.3872983346207417
ssS'po96ju10-a'
p618
(dp619
S'Segundo os tucanos, o presidente so apoiara explicitamente a campanha no Rio se o PSDB e o PFL se unirem.'
p620
F0.4152697672499609
sS'Isolado no partido, Ronaldo teima em sair candidato pelo PSDB.'
p621
F0.54772255750516607
sS'No encontro de hoje com o Marcello Alencar, Fernando Henrique dira que nao se opoe a escolha de Sergio Cabral Filho, mesmo que o PSDB nao se alie ao PFL.'
p622
F0.62749501990055667
sS'O nome do senador frequentou as conversas de Fernando Henrique e de Marcello desde o desembarque do presidente na Base Aerea do Galeao, no fim da tarde.'
p623
F0.43465914396061128
sS'Embora o senador Artur da Tavola jure nao ser candidato a candidato a Prefeitura carioca, seu nome foi cogitado pelo presidente Fernando Henrique Cardoso e o governador Marcello Alencar como alternativa para unir o PSDB do Rio e facilitar a alianca com o PFL.'
p624
F0.58257526500353529
sS'Apesar da agenda cultural do presidente na cidade, onde inaugurou exposicao de quadros do impressionista frances Eugene Boudin, no Museu Nacional de Belas Artes, e abriu a Semana de Portugal, no Real Gabinete Portugues de Leitura, a preocupacao politica dos dois era uma so: o recrudescimento da disputa entre o deputado federal Ronaldo Cezar Coelho e o estadual Sergio Cabral Filho, preferido do governador.'
p625
F0.67324231026676662
ssS'po96fe14-d'
p626
(dp627
S'O debate durante a sessao tambem foi agitado pela polemica arrecadacao do fundo e as perdas que provocara para estados e municipios.'
p628
F0.39735970711951318
sS'"Assumo politicamente o risco de prejudicar estados e municipios em favor da sobrevivencia do Real", encerrou o lider do PMDB.'
p629
F0.48245064067700771
sS'O fundo vai vigorar por 18 meses - ate 30 de junho de 1997 - e a arrecadacao prevista e de R$ 20 bilhoes por ano.'
p630
F0.48666426339228763
sS'O lider do PSB, Ademir Andrade (PA), denunciou que os senadores "estao atemorizados com as ameacas de serem investigados pela Receita Federal", depois que 12 deles retiraram as assinaturas de apoio as emendas.'
p631
F0.4947706959952935
sS'BRASILIA - O Senado aprovou ontem, em primeira votacao, a emenda que cria o Fundo de Estabilizacao Fiscal (FEF) - que substituira o extindo Fundo Social de Emergencia.'
p632
F0.43707337873812391
sS'A Caixa Economica Federal sera mais uma vez acionada para abrir novas linhas de credito para a renegociacao das dividas dos prefeitos.'
p633
F0.73786478737262184
sS'Nenhuma emenda foi apresentada na votacao de ontem.'
p634
F0.40555355282690625
sS'Atendendo ao apelo de Elcio e as condicoes do relator da emenda e lider do PMDB, Jader Barbalho (PA), o ministro da Fazenda, Pedro Malan, mais uma vez concordou em dar "compensacoes" aos prefeitos e facilitar o pagamento de suas dividas atrasadas, assim como fez com os governadores durante a votacao na comissao de Constituicao e Justica do Senado.'
p635
F0.70387636286872923
ssS'po96fe14-c'
p636
(dp637
S'Miranda acusou o governo de estar usando "o achaque, a retaliacao, o autoritarismo covarde e a falta de etica".'
p638
F0.50043459373697941
sS'Ontem, durante a sessao da supercomissao que debateu o relatorio de Ramez, varios senadores acusaram o governo de estar usando a Receita Federal para pressionar Gilberto Miranda.'
p639
F0.54446550648047087
sS'Alem do lobby do proprio presidente Fernando Henrique Cardoso, a estrategia governista incluiu desde a investigacao fiscal dos senadores contrarios ao projeto ate a renegociacao de dividas de parlamentares simpaticos a proposta.'
p640
F0.39125402252874997
sS'BRASILIA - O governo jogou pesado na aprovacao do Sistema de Vigilancia da Amazonia (Sivam) pela supercomissao do Senado.'
p641
F0.6048147367590061
sS'Apesar disso, a lideranca do governo continuava apostando na aprovacao do relatorio de Ramez Tebet, com base nos governistas que estao em silencio, mas ja se comprometeram com o Palacio do Planalto a apoiar o projeto.'
p642
F0.42460388780422342
sS'Em seu parecer sobre o Sivam, ele acabou apoiando a posicao do governo, de manter o contrato de US$ 1,4 bilhao com a empresa americana Raytheon.'
p643
F0.38135638490484502
ssS'mu94ag07-b'
p644
(dp645
S'O governo americano pressiona o japones para que aumente suas importacoes, principalmente de equipamentos medicos e de telecomunicacoes.'
p646
F0.38138503569823684
sS'Se a ameaca for cumprida, sera a primeira acao do genero desde a assinatura da Rodada Uruguai, no inicio do ano, quando se decidiu, no ambito do Gatt (Acordo Geral de Comercio e Tarifas), os rumos do comercio mundial.'
p647
F0.33754402656271859
sS'O Japao mostra numeros: sustenta que, no caso de equipamentos medicos, 32% das compras do governo sao de produtos importados, em comparacao a 3% nos EUA.'
p648
F0.48349377841522817
sS'As negociacoes se arrastam ha mais de um ano e, por enquanto, nao ha perspectiva de que cheguem a um acordo.'
p649
F0.39752319599996261
sS'A ameaca americana e de impor sancoes, que poderiam vir na forma de tarifas alfandegarias mais elevadas sobre alguns produtos japoneses.'
p650
F0.39317854974639244
sS'Nao e igualmente de bom augurio para o comercio internacional o fato de que, no mesmo 30 de setembro, os EUA vao anunciar uma nova versao da legislacao que ficou conhecida como Super 301, que permite aos americanos retaliar contra paises que discriminem suas exportacoes.'
p651
F0.38858916715735825
sS'O fracasso de Clinton pode se espalhar pela Asia, caso cumpra a ameaca de impor sancoes.'
p652
F0.56577894986100374
sS'Na pratica, o lobby de empresas americanas continua acenando com a possibilidade de sancoes contra o que considera ser comercio desleal por parte de paises exportadores.'
p653
F0.3290725908572088
sS'Os EUA alegam que o Japao discrimina produtos estrangeiros.'
p654
F0.48112522432468813
ssS'po96fe14-a'
p655
(dp656
S'Novidades - Hoje pela manha, os lideres dos partidos governistas e de oposicao se reunem novamente com Vicentinho.'
p657
F0.48997894350611138
sS'BRASILIA - Pressionados pelos parlamentares, os lideres dos partidos governistas recuaram e desistiram de extinguir o Instituto de Previdencia dos Congressistas (IPC) - uma das principais reivindicacoes das centrais sindicais.'
p658
F0.51618540120876388
sS'Apesar de perder a batalha do IPC, a Central Unica dos Trabalhadores (CUT) conseguiu garantir uma nova rodada de negociacoes sobre a reforma, desta vez no plenario da Camara.'
p659
F0.51599684032531845
sS'Temer era o maior defensor de que o destino do Instituto fosse definido por lei complementar.'
p660
F0.49746833816309111
sS'"Vamos analisar o relatorio e ver se todos os pontos de entendimento foram incluidos.'
p661
F0.55558389950371589
sS'Alem da CUT, a Forca Sindical tambem levantou a bandeira do fim do IPC.'
p662
F0.64818121608766865
sS'Existem pontos, como e o caso da aposentadoria para o servidor publico, que nao concordamos e vamos tentar que os partidos de oposicao derrubem isso no voto", disse Vicentinho.'
p663
F0.50709255283710997
sS'"Houve um movimento de parlamentares muito grande, que votariam contra a emenda se acabassem com o IPC", contou o relator da emenda, deputado Euler Ribeiro (PMDB-AM).'
p664
F0.50148588737679867
sS'O relator retirou de seu substitutivo o dispositivo que permitia a criacao de um imposto sobre movimentacoes financeiras e a centralizacao dos recursos previdenciarios no INSS.'
p665
F0.45022516889074821
sS'O futuro do Instituto sera decidido em lei complementar, a ser elaborada no prazo de um ano apos a promulgacao da emenda da reforma da Previdencia.'
p666
F0.49840763926806247
ssS'po96fe14-b'
p667
(dp668
S'Dizendo-se muito decepcionado com a atuacao de Euler Ribeiro - que definiu como "um deputado que foi mordido pela mosca azul e esta fazendo muita besteira" -, Vicentinho passou cerca de uma hora discutindo a reforma da Previdencia com os conselheiros da OAB.'
p669
F0.39491162135248098
sS'Vicentinho se referia aos pontos da reforma da Previdencia, que haviam sido acertados com a CUT, mas acabaram nao sendo incluidos no parecer do relator, Euler Ribeiro (PMDB-AM).'
p670
F0.44038550605054427
sS'Vicentinho tambem procurou o presidente da Camara dos Deputados, Luis Eduardo Magalhaes (PFL-BA), para expressar sua preocupacao com o relatorio de Euler.'
p671
F0.71457743809378682
sS'Vicentinho mandou ainda um recado ao ministro da Administracao e Reforma do Estado, Luis Carlos Bresser Pereira, que ja avisou que nao quer negociar a reforma administrativa com a CUT, porque as posicoes da central sao totalmente opostas as do governo.'
p672
F0.50760153046015355
sS'Eu so torco para que o presidente seja sincero, prestigie esse momento de negociacao e leve a discussao para a pratica.'
p673
F0.40000000000000002
sS'Quando entrou no gabinete do lider do PFL, Inocencio Oliveira (PE), o presidente da CUT provocou: "Inocencio, o homem que de inocente so tem o nome".'
p674
F0.44781107551989913
sS'Vamos ler o relatorio todinho e ja marcamos uma reuniao com Luis Eduardo para amanha (hoje), para dizer o que esta errado", afirmou o presidente da CUT.'
p675
F0.5917263354139386
sS'Mal-estar - Mesmo aceitando conversar com o governo, Vicentinho fez questao de mostrar, no Congresso, sua postura oposicionista.'
p676
F0.49236596391733095
ssS'po96fe13-a'
p677
(dp678
S'Os xavantes nao aceitam a nova politica da Funai de so liberar recursos para projetos auto-sustentaveis, rompendo com a politica assistencialista.'
p679
F0.64253960411568634
sS'Segundo ele, a Funai nao tem recursos para manter uma politica "paternalista".'
p680
F0.33678765702728169
sS'"Atraves de projetos um numero maior de indios sera beneficiado e nao apenas as tribos cujos caciques tem acesso a Brasilia", disse o presidente da Funai, que marcou para hoje uma reuniao com os caciques xavantes para discutir projetos para a area.'
p681
F0.51225071366548003
sS'Bagunca - Apesar do clima tenso, Santilli nao cedeu as pressoes dos caciques.'
p682
F0.44376015698018328
sS'Em momentos de maior irritacao, o cacique chegou a empurrar o rosto do presidente da Funai.'
p683
F0.40406101782088433
sS'Um cacique mais idoso gritou com o presidente da Funai.'
p684
F0.38138503569823695
sS'Irritado, o presidente da Funai disse que a mobilizacao dos xavantes foi "insuflada" por ex-funcionarios da fundacao que estao descontentes com a atual administracao.'
p685
F0.47469288317114394
sS'BRASILIA - Insatisfeitos com a falta de assistencia medica em suas aldeias, lideres de indios xavantes de Mato Grosso invadiram ontem a sede da Fundacao Nacional do Indio (Funai) e mantiveram o presidente da entidade, Marcio Santilli, o vice-presidente Jorge Pozzogon e dois diretores como refens por quase uma hora.'
p686
F0.7142857142857143
sS'Armados com lancas, bodoques e pintados para guerra, os indios passaram uma descompostura em Santilli, que foi agarrado pelos bracos e levado para a garagem da Funai.'
p687
F0.41907903806247482
sS'A negociacao com os indios foi feita pelo diretor de Patrimonio Indigena, Odenir Oliveira, tambem feito refem, que falou na lingua dos xavantes e conseguiu convence-los a sentar para conversar.'
p688
F0.3872983346207417
ssS'mu94de27-a'
p689
(dp690
S'Em seguida, levaram a porta do aviao um policial argelino e um diplomata vietnamita, mortos com uma bala na cabeca cada um.'
p691
F0.4216370213557839
sS'O GIGN (Grupo de Intervencao da Policia Nacional), especializado em situacoes do genero, iniciou o resgate as 17h15 (14h15 em Brasilia), pouco antes do anoitecer.'
p692
F0.58080231949677485
sS'O GIA, que combate o governo argelino, afirmou que o sequestro visava acabar com o apoio "incondicional, politico, militar e economico" da Franca a Argel.'
p693
F0.43557240518437668
sS'Durante toda a fase de negociacoes no aeroporto de Marselha, o resgate pelos policiais do GIGN vinha sendo planejado.'
p694
F0.37424059428255985
sS'O sequestro O aviao ia decolar de Argel as 11h15 de sabado (8h15 em Brasilia), com destino a Paris, quando foi tomado por quatro homens vestidos como o pessoal do aeroporto.'
p695
F0.3319700011034929
sS'Parte dos passageiros pode escapar do aparelho pelos tobogas de emergencia.'
p696
F0.41367015199601531
sS'A principal delas era a libertacao de dois ex-lideres da FIS (Frente Islamica de Salvacao), Abassi Madani e Ali Benhadj, em prisao domiciliar.'
p697
F0.56736651461358023
sS'Quatro terroristas morreram e 25 pessoas ficaram feridas na operacao policial que pos fim a 54 horas de sequestro de um aviao da Air France, no aeroporto de Marselha (Franca), em Marignane.'
p698
F0.36166967464852717
sS'Treze passageiros, tres tripulantes e nove policiais foram feridos no resgate, segundo o Ministerio do Interior frances, que considerou a operacao um sucesso.'
p699
F0.39317854974639244
sS'O crime irritou o governo frances, que decidiu resolver o problema por conta propria e pressionou Argel a permitir a decolagem do aviao.'
p700
F0.47336463120312866
ssS'ce94ab17-a'
p701
(dp702
S'A coordenadora do programa de qualidade na empresa, Marcia Cristina de Oliveira Neto, disse que ainda nao e possivel dimensionar os ganhos financeiros que "certamente" a empresa tera, em consequencia da melhoria da qualidade de seus produtos e servicos.'
p703
F0.62864716302120871
sS'Atualmente ela opera com 55% da sua capacidade e atua nos mercados de Minas, Rio, Distrito Federal e interior de Sao Paulo.'
p704
F0.39267773580355203
sS'As informacoes estao mais claras e os funcionarios e clientes, mais satisfeitos."'
p705
F0.38138503569823695
sS'Os ganhos sao atribuidos pela diretoria da fabrica a nova filosofia que vem sendo implantada na empresa desde outubro do ano passado, quando a Pirata se iniciou no Programa Sebrae de Qualidade Total.'
p706
F0.39840953644479787
sS'A empresa Produtos Pirata Industria e Comercio Ltda., de Contagem (na regiao metropolitana de Belo Horizonte), devera registrar este ano um crescimento de produtividade nas suas areas comercial e industrial de 11% e 17%, respectivamente.'
p707
F0.62793400662257837
sS'Isso implica tambem mudancas radicais no comportamento dos membros da diretoria da empresa.'
p708
F0.372677996249965
sS'Dona de 65% do mercado mineiro de temperos, condimentos e molhos, a Pirata reune atualmente 220 funcionarios.'
p709
F0.42605779147390038
sS'"Estamos conseguindo economizar bastante, so com a diminuicao da perda de alho e sal, que caem no chao na hora da pesagem".'
p710
F0.4281744192888377
sS'"A primeira exigencia foi a implantacao de algum tipo de lazer na hora do almoco.'
p711
F0.60984957861664502
sS'Fundada em 15 de marco de 1972, a Pirata possui capacidade instalada para produzir 5.750 toneladas anuais de temperos, condimentos e molhos.'
p712
F0.36369648372665397
ssS'po96ab19-a'
p713
(dp714
S'Os policiais reagiram atirando com fuzis e metralhadoras.'
p715
F0.80178372573727308
sS'Imagens feitas pela TV Liberal do Para durante o conflito mostram que os policiais militares chegaram a area onde os sem-terra estavam acampados na rodovia PA-150, disparando bombas de gas lacrimogenio.'
p716
F0.54029546723916899
sS'"Infelizmente, ha fortes indicios de que houve execucoes", conclui o advogado Percilio Neto, um dos dois membros do Conselho de Defesa dos Direitos da Pessoa Humana enviados ao Para pelo ministro da Justica, Nelson Jobim, para investigar o massacre.'
p717
F0.60477666337526892
sS'Segundo os sem-terra que estao feridos em hospitais de Maraba, a policia ja chegou a area atirando.'
p718
F0.50077339566719137
sS'MARABA, PA - O Ministerio da Justica encontrou indicios de que parte dos 19 sem-terra mortos pela Policia Militar do Para podem ter sido executados.'
p719
F0.50289484567496978
sS'O secretario de Seguranca do Para, Paulo Sette Camara, disse que autorizou os policiais a agirem "com a forca necessaria" para forcar os sem-terra a deixarem a estrada.'
p720
F0.5554920598635309
sS'Depois apareceu com um tiro na cara", denuncia.'
p721
F0.3872983346207417
sS'O objetivo era forca-los a desobstruir a rodovia PA-150, que tinham ocupado para protestar contra o atraso na desapropriacao de terras para reforma agraria.'
p722
F0.41403933560541251
sS'Ele deixou na cidade como representantes dois integrantes do Conselho de Defesa dos Direitos da Pessoa Humana e o assessor de imprensa do ministerio.'
p723
F0.49487165930539351
sS'Os agricultores reagiram atirando pedras e partindo para cima dos policiais com facoes e cacetes.'
p724
F0.64676166676355462
sS'O ministro Nelson Jobim esteve em Maraba ontem, mas nao chegou a sair do aviao.'
p725
F0.53333333333333321
ssS'po96ab19-b'
p726
(dp727
S'As contestacoes partiram de pessoas fisicas e juridicas, prefeituras e governos estaduais.'
p728
F0.71713716560063612
sS'Mesmo com as pressoes das ONGs e dos proprios tecnicos da Funai, o governo revogou o decreto de Collor e abriu a possibilidade de revisao de areas demarcadas a partir de 1991.'
p729
F0.44271887242357305
sS'O Conselho Indigenista Missionario (Cimi) anunciou ontem que vai realizar um trabalho paralelo para fiscalizar a analise das 56 areas indigenas que estao sendo contestadas com base no decreto, assinado em janeiro pelo presidente Fernando Henrique Cardoso.'
p730
F0.48418202613504185
sS'De acordo com a Funai, das 56 areas contestadas, 31 nao atendem as exigencias do decreto.'
p731
F0.42857142857142855
sS'Sao areas registradas, como e o caso da reserva dos ianomami, em Roraima e Amazonas; de areas que ainda nao haviam sido criadas, e ainda de contestacoes que chegaram a Funai depois do prazo fixado pelo Ministerio da Justica.'
p732
F0.43308175742282218
sS'As contestacoes envolvem a anulacao da homologacao, anulacao de portaria declaratoria, revisao de limites e indenizacao de terra.'
p733
F0.52623481158421759
sS'BRASILIA - Criticas ao decreto que permite a revisao de areas indigenas que ainda nao foram registradas vao marcar, hoje, o Dia do Indio.'
p734
F0.61339561508214813
ssS'mu94ab03-a'
p735
(dp736
S'Apresento a seguir minha analise do que aconteceu e tambem minhas recomendacoes aos bancos centrais de paises importantes, que hoje precisam repensar suas politicas.'
p737
F0.81312493577073464
sS'Evidentemente foi sua forca, e nao sua fraqueza: no ultimo trimestre de 1987 os EUA tiveram uma taxa de crescimento economico anual de 6% -a maior taxa de crescimento desde 1983, e que nao voltou a ser equiparada novamente ate o final de 1993.'
p738
F0.39940628317237847
sS'Foi uma fraqueza do PIB norte-americano ou sua forca que causou a queda de outubro de 1987?'
p739
F0.39411590014501025
sS'Com uma renda maior, os norte-americanos oferecerao mercados de exportacao mais fortes para a Europa em geral, para os paises do Sudeste Asiatico e para o mundo em vias de desenvolvimento.'
p740
F0.34312178324836051
sS'Se e quando ocorrerem sinais de que as restricoes monetarias estiverem sufocando a recuperacao dos Estados Unidos, prepare-se para voltar a tatica de manter baixas as taxas de juros.'
p741
F0.35805743701971643
sS'Quando a producao aumentava, as acoes tambem disparavam e os bonus caiam com o aumento induzido nas taxas de juros.'
p742
F0.41403933560541251
sS'Os investidores norte-americanos vem aprendendo a enxergar a longo prazo: a comprar acoes e conserva-las por decadas, em lugar de tentar prever os altos e baixos do ciclo empresarial.'
p743
F0.36476860207004264
sS'As acoes em Nova York cairam 22% num unico dia.'
p744
F0.40451991747794519
sS'E qualquer tendencia continua a quedas futuras nos principais indices de acoes fara com que os investidores voltem a adotar a ansiosa perspectiva de curto prazo.'
p745
F0.37497010880390608
sS'No inicio de fevereiro, elevou repentinamente as taxas de juros de curto prazo; de la para ca, os bonus de longo prazo entraram em queda continua em Wall Street e este choque norte-americano desencadeou ondas de fraqueza financeira nos mercados de bonus do mundo inteiro.'
p746
F0.37654354890778391
sS'Mas, sendo realista, sou obrigado a admitir que nossas taxas de juros tenderao a aumentar ate que comecem a surgir sinais de fraqueza indubitavel na demanda.'
p747
F0.39043440472151519
sS'O prognostico consensual que estava sendo feito antes apontava para algo entre 2% e 3%.'
p748
F0.3903600291794132
sS'Com frequencia cada vez maior, as acoes e os bonus parecem mover-se juntos.'
p749
F0.38516444325982169
sS'O que me preocupa e a Asia e a Europa.'
p750
F0.42919753763947599
sS'Anteriormente a locomotiva norte-americana era a unica forca operante que freava a recessao na Europa e no Japao.'
p751
F0.56195148694901642
sS'O que move os mercados e move as autoridades do Fed e o estupendo crescimento do PIB real dos Estados Unidos, que chegou a 7% anuais no ultimo trimestre de 1993.'
p752
F0.6132441406718665
sS'A tendencia de alta do mercado de acoes nos EUA e no resto do mundo nao conseguira evitar este dificil teste.'
p753
F0.49135381491199542
sS'Observem que todos, de fato, esperam uma consideravel desaceleracao do crescimento, prevendo que ele nao mantera os picos recentes.'
p754
F0.33333333333333331
ssS'in96ab26-b'
p755
(dp756
S'O relatorio destaca a volta da diplomacia da forca, usada principalmente pelos Estados Unidos, potencia hegemonica no mundo depois do colapso do comunismo.'
p757
F0.43643578047198472
sS'Sem nenhum constrangimento, o presidente russo disse para uma plateia formada pela elite comunista chinesa que uma vitoria comunista nas eleicoes de junho na Russia seria uma tragedia para o pais.'
p758
F0.60465116279069775
sS'PEQUIM - Os presidentes da China, Jiang Zemin, e da Russia, Boris Yeltsin, anunciaram ontem em Pequim uma parceria estrategica, definida por Yeltsin como um "modelo de relacoes para outros paises".'
p759
F0.68783593942879473
sS'Os dois presidentes disseram ainda que pretendem assinar um tratado para retirar seus soldados da fronteira comum.'
p760
F0.33384893044479425
sS'Num comunicado conjunto, os chefes de Estado alertaram contra nacoes que tentam dominar o mundo pos-Guerra Fria, recado claro aos Estados Unidos e seus aliados da Organizacao do Tratado do Atlantico Norte (Otan, alianca militar ocidental).'
p761
F0.54410718758250876
sS'A questao da expansao da Otan para os paises da Europa Central e do Leste, a que Yeltsin se opoe, tambem foi tratada pelos dois chefes de Estado.'
p762
F0.56011203361120399
sS'Entre eles, um de cooperacao para desenvolvimento de tecnologia militar e maior intercambio entre suas Forcas Armadas.'
p763
F0.76682578111614896
sS'Para diplomatas, o acordo marca o apice dos lacos entre Pequim e Moscou desde que a alianca sino-sovietica desmoronou nos anos 60, em meio a rivalidade pela supremacia do mundo comunista e a conflitos de fronteira.'
p764
F0.46581233568409469
sS'"No que diz respeito a ampliacao da Otan, o presidente Jiang Zemin decididamente compartilha da opiniao da Russia de que a expansao da Otan em direcao as suas fronteiras e inadmissivel", disse Yeltsin.'
p765
F0.40824829046386307
ssS'mu94ab04-a'
p766
(dp767
S'A opiniao publica nao teve tempo de se expressar a respeito: foi substituida por caminhoes de ambulantes e agricultores carregados pelo PRI desde Ciudad Nezahualcoyotl e Chalco, que repudiaram Camacho, o mediador da paz, no velorio de Colosio.'
p768
F0.41068925864504513
sS'Funcionou de maneira igualmente drastica no interior das instituicoes estatais -como uma purga politica, uma volta a disciplina cega, uma intimidacao da liberdade de expressao: de um golpe estava de volta a unidade hermetica da "familia revolucionaria", como ficou mais do que claro com a nomeacao de Ernesto Zedillo e a proibicao de que as correntes do PRI se manifestassem publicamente sobre qualquer candidato.'
p769
F0.63100060594731788
sS'No momento de maior impacto do zapatismo, quando o "comandante Marcos", o ex-chanceler Manuel Camacho Solis, o bispo Samuel Ruiz e os delegados indigenas eram enquadrados na capela da catedral de San Cristobal de las Casas por cameras de TV de todo o mundo, alguns dos que nos encontravamos ali comecamos a armar uma hipotese a qual chamamos "golpe de timao".'
p770
F0.58363358895807327
sS'Outra reacomodacao de grande significado: o Conselho Estatal de Organizacoes Indigenas e Camponesas (as 280 organizacoes que recentemente haviam reconhecido o EZLN como forca beligerante) propos a suspensao imediata dos planos para ocupacao de terras em Chiapas e em todo o pais.'
p771
F0.51210394815946114
sS'Uma hora apos a morte de Colosio -na realidade minutos depois de o publico receber a tragica noticia-, Octavio Paz pedia um "basta aos excessos verbais e ideologicos de alguns intelectuais e jornalistas" e as "numerosas e irresponsaveis apologias da violencia".'
p772
F0.38816880877783555
sS'Sera por acaso que, diante do relaxamento da "ordem" em que comecou o ano de 1994, e com achaques a atores sociais, jornalistas e intelectuais "irresponsaveis" (como se a desordem brutal nao fosse gerada dentro do proprio modelo), o regime esta dando mostras de encaminhar-se para a via autoritaria, suprimindo suas correntes conciliadoras?'
p773
F0.44445663820946979
sS'Acrescentava Hector Aguilar Camin, um dos intelectuais do governo Salinas: "Durante tres meses assistimos a consagracao jornalistica da violencia.'
p774
F0.44539933408304444
sS'E impossivel desvincular o assassinato de Colosio do ambiente de prestigio e moda que deu a violencia chiapaneca o perfil de um epico, mais do que o de uma desgraca".'
p775
F0.61803144314952574
sS'Aquela hipotese previa um cenario de reforma agraria, acertado com alguns proprietarios importantes da regiao, que pusesse as organizacoes indigenas e camponesas ao lado do regime, evitando a tendencia natural delas de alinhar-se ao zapatismo.'
p776
F0.54443572293729625
sS'Se aproveitaria a presenca daquele aparato de imprensa para dizer ao mundo que o Mexico nao e America Central e que, apesar de Chiapas se encontrar, por particularidades historicas, naquela situacao de injustica e concentracao de renda, o governo mexicano sempre se havia caracterizado por encontrar solucoes que fossem ao fundo dos problemas.'
p777
F0.4126563070601153
sS'Mas o resultado, surpreendentemente, foi o mesmo no que se refere a reconstituicao do principio da autoridade.'
p778
F0.44020438924006655
sS'No economico, chegou-se ao extremo de ver a Bolsa reagindo hora a hora aos rumores sobre o lancamento ou a renuncia de Camacho a candidatura presidencial.'
p779
F0.43037668342494384
sS'Enquanto alguns intelectuais desqualificavam o zapatismo na capital, o EZLN declarava: "Nos vemos obrigados a suspender a consulta (sobre as propostas de paz) e a preparar-nos para defender nossa causa e nossa bandeira.'
p780
F0.39770583933420295
sS'Com a morte de Colosio vivemos tambem a morte politica de Camacho.'
p781
F0.40016336533252062
sS'Nao nos parecia logico que o regime, levando em conta a personalidade do presidente Carlos Salinas, estivesse amolecendo diante do conflito de Chiapas, que se aproximava cada vez mais de uma guerra civil e do contagio para o resto do pais -com um presidente diminuido, um Nafta sob questionamento, um mediador da paz ocupando o primeiro plano ja por muitos dias e um candidato oficial cujos discursos se perdiam em espacos reconditos da imprensa.'
p782
F0.38835044780146161
sS'Mas talvez o que era o maior obstaculo a superar para o Estado e seu partido se tenha transformado, com esta morte, em seu maior aliado -pois conseguiu-se transformar o "voto de castigo", que os politicos priistas vinham carreando e que se agucou com o ocorrido em Chiapas, em voto de simpatia e comiseracao diante da injusta morte de quem acabou como martir.'
p783
F0.41558830972298871
ssS'ce94jl31-d'
p784
(dp785
S'Ha uma serie de fatores que confluem: os professores recebem baixos salarios e sao mal-treinados, a metodologia e o curriculo sao inadaptados, o aluno chega a sala de aula sem nenhuma base educacional da familia ou da pre-escola.'
p786
F0.45267873021259264
sS'"E um tremendo desperdicio de recursos.'
p787
F0.54433105395181736
sS'Para se determinar a posicao de cada nacao, o Unicef comparou a taxa de evasao escolar com o Produto Interno Bruto per capita soma de todos os bens e servicos produzidos, dividida pela populacao do pais.'
p788
F0.44860030765130415
sS'Com isso, o pais ficou com indice negativo de 49 pontos.'
p789
F0.36927447293799825
sS'Com base em dados fornecidos pelo Ministerio da Educacao, a lista da ONU informa que apenas 39% chegam a este estagio.'
p790
F0.36742346141747673
sS'O Ministerio da Educacao calcula que existem ameacas dificultando a melhoria das escolas.'
p791
F0.38177085778546666
sS'O dado e preocupante nao apenas por revelar a baixa taxa de cidadania.'
p792
F0.44376015698018328
sS'Pelo potencial economico brasileiro, pelo menos 88% das criancas matriculadas no primeiro grau deveriam concluir pelo menos a 5a serie.'
p793
F0.67936622048675754
sS'A media de permanencia na escola de um aluno que completa a 8a serie e de aproximadamente 12 anos.'
p794
F0.47999999999999998
sS'Comparada com a potencialidade economica do pais, o nivel da educacao basica brasileira esta em ultimo lugar no mundo.'
p795
F0.85485041426511033
sS'Ate cinco anos atras, os gastos com aposentados representavam 15% da folha de pessoal do ministerio.'
p796
F0.5103103630798288
ssS'ce94jl31-e'
p797
(dp798
S'O principal responsavel pelo aumento nas mortes violentas sao os homicidios, em que os contrastes sociais sao causa basica.'
p799
F0.37686733144071588
sS'Um brasileiro de 60 anos, por exemplo, tem seis vezes mais chance de morrer se sofrer um derrame do que um americano.'
p800
F0.34651846545936799
sS'"As doencas cronicas aqui matam mais, e mais precocemente", diz Carlos Augusto Monteiro, professor titular de nutricao da Faculdade de Saude Publica e coordenador do estudo no Nupens.'
p801
F0.35856858280031806
sS'Da mesma maneira, analfabetos sao mais propensos a fumar, consumir alcool, viver de maneira sedentaria e serem obesos.'
p802
F0.36004114991154784
sS'Uma pesquisa realizada em Porto Alegre, divulgada pelo Banco Mundial, mostra que pessoas sem escolaridade (um indicador que sugere pobreza) tem cerca de cinco vezes mais chance de terem pressao arterial elevada, o que predispoe a infartos, do que pessoas com instrucao superior.'
p803
F0.58880150398414466
sS'O final da decada passada selou a tendencia: mais pessoas foram assassinadas no Estado de Sao Paulo do que mortas em acidentes de transito.'
p804
F0.35478743759344955
sS'Parte da culpa e sem duvida do atendimento medico, mais precario aqui.'
p805
F0.35066719218483605
sS'Os dados fazem parte do estudo "Mudancas no perfil de saude da populacao brasileira", realizado por pesquisadores do Nupens/USP (Nucleo de Pesquisas Epidemiologicas em Nutricao e Saude), ainda nao publicada.'
p806
F0.37685117317409139
sS'E muito mais barato investir em campanhas de alimentacao saudavel, que visam reduzir o colesterol no sangue, do que pagar por pontos de safena.'
p807
F0.36262033381142111
sS'Isso da a impressao de que os fatores de risco das doencas cronicas estao associados apenas ao estilo de vida existente no Primeiro Mundo.'
p808
F0.37032803990902052
ssS'in96ab25-a'
p809
(dp810
S'"Prefiro a renuncia e ate a morte a um derramamento de sangue", respondeu Wasmosy que, diante das pressoes do general, chegou a escrever que pediria licenca da presidencia.'
p811
F0.40824829046386296
sS'Temendo os grampos, os interlocutores entre o presidente e o general golppista se recusavam a usar telefones e passaram a madrugada de segunda para terca-feira entre a casa de Wasmosy, uma improvisada fortaleza de negociacoes, e o quartel de cavalaria, onde o general, que insistia em desacatar a ordem do presidente e nao abria mao do comando do Exercito, devolvia seus explosivos recados.'
p812
F0.52643112352806165
sS'Numa cerimonia da qual Wasmosy participou, Oviedo deixou a chefia do Exercito e passou para a reserva, mas sua posse no Ministerio da Defesa foi adiada.'
p813
F0.4879500364742666
sS'Wasmosy so nao desistiu da presidencia, que exerce ha tres anos, porque recebeu respaldo internacional, do papa Joao Paulo II ao presidente Bill Clinton, dos Estados Unidos.'
p814
F0.5661385170722979
sS'E poucos paraguaios - muitos voltaram a xingar ontem o presidente de covarde e hijo de p... - conheciam os bastidores da ameaca de golpe militar e das negociacoes entre Wasmosy e Oviedo, que duraram 17 horas.'
p815
F0.35037429748427029
sS'Temendo os atentados, Wasmosy mandou que ate os soldados deixassem o palacio presidencial e foi dormir fora de casa com tres dos quatro filhos.'
p816
F0.32714432804381233
sS'ASSUNCAO - Pressionado pela populacao e pela oposicao parlamentar, o presidente do Paraguai, Juan Carlos Wasmosy, tentava ontem encontrar uma maneira de impedir a posse do general golpista Lino Cesar Oviedo no Ministerio da Defesa, enquanto vinham a tona os bastidores da crise que explodiu na segunda-feira, quando Oviedo se rebelou contra a decisao de Wasmosy de demiti-lo da chefia do Exercito.'
p817
F0.45756769086238253
sS'O acordo feito terca-feira entre Wasmosy e Oviedo - pelo qual o general deixaria a chefia do Exercito, mas seria nomeado ministro da Defesa - fazia agua, rejeitado pela populacao que, segunda-feira a noite, tinha saido a rua para defender a democracia.'
p818
F0.40824829046386307
ssS'mu94de07-a'
p819
(dp820
S'Os EUA pretenderam vincular tambem o respeito ao meio ambiente como pre-condicao para o livre comercio, o que foi igualmente rejeitado pelos latinos.'
p821
F0.55708601453115558
sS'Exemplo: o documento diz que os presidentes e chefes de Estado eleitos nas Americas comprometem-se a promover a prosperidade, os valores democraticos e institucionais e a seguranca no hemisferio.'
p822
F0.60169465267668032
sS'O Plano de Acao e o documento mais substantivo dos dois a serem assinados em Miami.'
p823
F0.5103103630798288
sS'Os baixos salarios pagos na maior parte dos paises latino-americanos tendem a ser um foco de profundas divergencias entre os EUA e seus vizinhos do Sul, quando se iniciarem as negociacoes concretas para o estabelecimento da Afta (Zona Americana de Livre Comercio, em ingles).'
p824
F0.47776654295295456
sS'Mas os latinos, capitaneados pelo Brasil, presidente de turno do Grupo do Rio, rejeitaram a tentativa norte-americana de vincular o tema salarial a abertura comercial inerente a Afta.'
p825
F0.42670459765013202
sS'Traduzindo: a pretexto de que os baixos salarios e o desrespeito ao meio ambiente representam uma concorrencia desleal com a producao norte-americana, os EUA (e a Europa) poderiam impor medidas protecionistas.'
p826
F0.4200412794412906
sS'O argumento utilizado e o de que essa questao ainda esta sendo discutida em organismos multilaterais, como o Gatt (Acordo Geral de Tarifas e Comercio, a ser substituido em janeiro pela Organizacao Mundial de Comercio) e a OIT (Organizacao Internacional do Trabalho).'
p827
F0.4216370213557839
ssS'ce94jl31-a'
p828
(dp829
S'Criado com a Constituicao, em 1988, o SUS da a todos os cidadaos o direito a saude o que tambem foi uma grande conquista: antes de 1988, para ser atendido pelo extinto Inamps, o paciente precisava mostrar sua carteira de previdenciario.'
p830
F0.56817765175392498
sS'O SUS previa um sistema descentralizado de auditoria, em que os municipios e os proprios usuarios do sistema de saude deveriam atuar na fiscalizacao.'
p831
F0.39123039821797578
sS'No mesmo periodo, os 25 municipios aumentaram em 155% suas despesas com atendimento medico, de acordo com um relatorio ainda a ser publicado pelo Cepam (Centro de Estudos e Pesquisa de Administracao Municipal), na USP.'
p832
F0.3800632629601931
sS'O SUS esta no caminho certo, pois investe em quem mais tem condicoes de tratar de saude os municipios.'
p833
F0.42340489921997049
sS'Mas, de acordo com o Ministerio da Saude, a principal esta dentro do proprio governo federal.'
p834
F0.38570403891300231
sS'Como era de se esperar, a municipalizacao que significa descentralizacao de decisoes e distribuicao de verbas, ou, em outras palavras, de poder encontrou e encontra muitas resistencias comparaveis as encontradas no programa de privatizacao.'
p835
F0.47725221770075782
sS'De acordo com tecnicos do ministerio, o grupo de auditores, cerca de 500, conseguiu fazer prevalecer um sistema centralizado de auditoria, o recem-criado Sistema Nacional de Auditoria que traz semelhancas com o sistema que fiscalizava o Inamps, tao conhecido pelos escandalos e fraudes.'
p836
F0.45392755843912186
sS'Praticamente todas as instalacoes do Inamps que tinha 125 mil funcionarios e 670 unidades ja foram transferidas aos Estados e municipios.'
p837
F0.40482045237636827
ssS'ce94jl31-b'
p838
(dp839
S'No caso da aposentadoria por tempo de servico, a tendencia e criar no seu lugar um sistema misto.'
p840
F0.46499055497527719
sS'Variam de um a dez salarios minimos.'
p841
F0.49487165930539351
sS'Para pensao, o valor minimo e de 85% do menor valor base de contribuicao.'
p842
F0.46225016352102433
sS'A proposta da Febraban preve o financiamento atraves de contribuicao dos segurados e das empresas ate a faixa de dois salarios minimos.'
p843
F0.75724018541853588
sS'O valor minimo do beneficio corresponderia a 85% do menor valor base de contribuicao para individuos com menos de 70 anos e de 90% para quem estiver acima dessa idade.'
p844
F0.48418202613504197
sS'A ideia do sistema misto e levar em conta a idade e o tempo de contribuicao do trabalhador para a Previdencia.'
p845
F0.47628967220784013
sS'A CUT quer a manutencao da aposentadoria por tempo de servico.'
p846
F0.56575238185601795
sS'O deputado Reinhold Stephanes (PFL-PR), ex-ministro da Previdencia, propoe que os criterios de aposentadoria sejam iguais para os homens e para as mulheres.'
p847
F0.69631062382279141
sS'O regime seria obrigatorio para os empregados e facultativa para os trabalhadores autonomos.'
p848
F0.84887468762716545
sS'Por ela, o trabalhador se aposentaria quando a soma de sua idade e do tempo de contribuicao fosse igual a 95.'
p849
F0.60104076400856532
sS'A CUT quer manter a contribuicao atual das empresas.'
p850
F1
sS'Apenas sete paises em todo o mundo adotam o sistema de aposentadoria por tempo de servico, entre eles o Brasil.'
p851
F0.52816430110102008
sS'Apesar do consenso sobre a necessidade de reformular a Previdencia Social, as propostas hoje em discussao apresentam pontos divergentes.'
p852
F0.9759000729485332
ssS'ce94jl31-c'
p853
(dp854
S'Aumentar simplesmente o numero de escolas e vagas nao e prioridade.'
p855
F0.40360367639778749
sS'No Brasil, quase metade da populacao de mais de 10 anos de idade nao completou esse ciclo.'
p856
F0.40482045237636827
sS'A taxa oficial de analfabetismo no Brasil e de 18%.'
p857
F0.65279120983386685
sS'A qualificacao do corpo docente depende tambem de uma reforma na politica de carreira e de salarios dos professores, segundo Azuete.'
p858
F0.42700841014689905
sS"A situacao de boa parte dos 82% 'nao analfabetos' nao e muito melhor que a dos que nunca foram a escola."
p859
F0.55555555555555558
sS'Para os criterios mais refinados, defendidos por pesquisadores de servicos de estatisticas educacionais e educadores, a exigencia de quatro anos de escolaridade e o requisito minimo para que alguem nao seja considerado um analfabeto funcional.'
p860
F0.49319696191607187
sS'Pelo menos nos ultimos cinco anos, o governo federal vem investindo cerca de 50% a 60% de seus recursos em educacao no ensino superior nas instituicoes federais de ensino.'
p861
F0.39235769764309042
sS'Investiu na formacao e na carreira do professor.'
p862
F0.53687549219315922
sS'Conceitos mais exigentes, no entanto, abarcariam quase 60 milhoes de brasileiros na categoria de analfabetos.'
p863
F0.40219983326992187
sS'O criterio oficial identifica alfabetizados pela capacidade de "saber escrever um bilhete simples".'
p864
F0.41812100500354543
sS'O resultado e que a Constituicao nao e cumprida", diz Cunha.'
p865
F0.47087095579741878
sS'"Nos municipios menores, a situacao da educacao basica e muito ruim, tanto em termos de evasao e repetencia como em termos de nivel de conhecimentos dos alunos aprovados", diz Azuete Fogaca, professora da Universidade Federal de Vicosa.'
p866
F0.40409509710385477
sS'As proprias empresas chegaram a conclusao de que se a mao-de-obra nao for melhor preparada, o pais nao tera condicoes de competir internacionalmente, diz Celio Cunha, chefe do departamento de Projetos Educacionais do ministerio da Educacao.'
p867
F0.44556639433950346
ssS'mu94de04-c'
p868
(dp869
S'Por fim, os agricultores sao a classe social que mais se opoe a UE.'
p870
F0.36490022459988086
sS'Quatro anos depois, os socialistas preferiram escolher Gaston Defferre como candidato e naufragaram, com apenas 5% dos votos.'
p871
F0.39223227027636814
sS'O presidente nao percebeu a tempo a queda do comunismo: nao previu a queda do Muro de Berlim em 1989, e chegou a flertar com os golpistas de Moscou em 1991.'
p872
F0.54716981132075471
sS'Em 1988, foi reeleito facilmente.'
p873
F0.36514837167011072
sS'A Franca foi a principal responsavel pelo adiamento da livre circulacao de pessoas no interior da Comunidade, prevista para janeiro de 95.'
p874
F0.39779612647907758
sS'Em 1992, o presidente reviveu seus grandes momentos de campanhas do passado ao se engajar na luta pela aprovacao em plebiscito do tratado de Maastricht, que preve a moeda unica na Europa.'
p875
F0.7492686492653553
sS"Foi com a ajuda desses votos que, finalmente, Mitterrand alcancou seu objetivo, derrotando por pouco Valery Giscard d'Estaing na eleicao presidencial de 1981."
p876
F0.37450294313656918
sS'Ja em 1951, durante um congresso socialista, o futuro presidente dizia que nada e possivel, muito menos a paz, se a Franca nao for o agente da Europa.'
p877
F0.38844929803367795
sS'Os franceses receiam o trafico de drogas e a imigracao clandestina.'
p878
F0.5170876899950192
sS'Facanha Em 1965, aos 49 anos, ele alcancou a facanha de levar De Gaulle ao segundo turno da eleicao presidencial.'
p879
F0.42426406871192845
sS'Para uns, foi um periodo de paz em que a Franca enriqueceu; para outros, a maioria dos compromissos de campanha foi esquecida.'
p880
F0.58248237251071755
sS'O motivo alegado foram dificuldades para implantar o banco de dados de todas as policias europeias, em Estrasburgo.'
p881
F0.38348249442368521
ssS'mu94de04-b'
p882
(dp883
S'As decisoes relativas a venda de armas para o Ira e ao envio de capital para os contras da Nicaragua passaram por McFarlane, dai o tom confessional do livro.'
p884
F0.49224759248542016
sS'O livro e de autoria de Robert McFarlane com a jornalista Zofia Smardz.'
p885
F0.50128041182760308
sS'McFarlane deixa claro, no entanto, que apesar da aprovacao de todos os conselheiros de Reagan, fora de sua presenca, apenas duas pessoas se opuseram a venda de armas ao Ira e o desvio do capital aos contras: o secretario de Estado George Shultz e o secretario de Defesa Caspar Weinberger.'
p886
F0.7084919084320761
sS'McFarlane foi Conselheiro de Seguranca Nacional de Reagan entre 1983 e 1985.'
p887
F0.4076871241636057
sS'A grande falha de McFarlane e que ele nao convence de que nao deve ser incluido nesta lista.'
p888
F0.47434164902525688
sS'O autor faz mea-culpa ao mesmo tempo em que aponta todos os outros personagens do escandalo, que conseguiram se desvencilhar de provas cabais da sua participacao no caso, como o seu assessor direto Oliver North e o proprio presidente Ronald Reagan.'
p889
F0.4131671220064233
ssS'mu94de04-d'
p890
(dp891
S'Mas sua situacao no Parlamento nao e tranquila.'
p892
F0.36860489038724281
sS'Os politicos alemaes nao negam, porem, que seu pais tambem se beneficia da Uniao Europeia.'
p893
F0.37686733144071588
sS'Foi o auge da carreira de Kohl.'
p894
F0.46291004988627571
sS'Apesar de queda do Muro e a reunificacao terem sido mais consequencia das manifestacoes que em 1989 abalaram o Leste Europeu e da politica de abertura promovida pelo entao presidente sovietico, Mikhail Gorbatchov, Kohl soube aproveitar o clima de euforia que tomou conta do pais.'
p895
F0.58050756489583843
sS'Com o crescimento da economia e a tendencia a queda no desemprego, sua popularidade subiu e seu partido, a Uniao Democratica Crista (CDU), foi o mais votado nas eleicoes parlamentares do mes passado.'
p896
F0.64037295334816025
sS'Kohl tambem promoveu o ingresso da Alemanha reunificada na entao Comunidade Economica Europeia e na alianca militar Organizacao do Tratado do Atlantico Norte (Otan).'
p897
F0.49999999999999994
sS'Nos proximos seis anos, calcula-se que cerca de US$ 18 bilhoes sairao dos cofres da UE para projetos contra o desemprego na ex-Alemanha Oriental.'
p898
F0.71443450831176036
sS'A Alemanha tambem e o pais que mais investe no Leste Europeu.'
p899
F0.4879500364742666
sS'O chanceler viu tambem a extrema direita crescer na Alemanha, assim como o aumento de ataques xenofobos contra estrangeiros em busca de asilo no pais.'
p900
F0.36980013081681939
sS'Em 3 de outubro de 1990, os aliados da Segunda Guerra Mundial (Franca, EUA, Reino Unido e Uniao Sovietica), que ate entao mantinham tropas no pais, assinaram a soberania da Alemanha.'
p901
F0.45095603392993328
sS'Mais do que pelos sucessos de seu governo conservador na Alemanha, Helmut Kohl entrara para a historia como grande incentivador da Uniao Europeia e tambem por um acaso: a queda do Muro de Berlim, em 1989.'
p902
F0.53099424405359141
sS'Entre 1989 e 1993, pagou cerca de US$ 91 bi bilhoes para reformas em paises do Leste e da ex-URSS.'
p903
F0.46848748060169065
sS'Alem do chanceler, o nome mais forte da CDU e o ex-ministro do Interior e lider do partido no Parlamento, Wolfgang Schauble, vitima de um atentado que, em 1990, o deixou paralitico.'
p904
F0.37208055032045606
ssS'po96ab09-c'
p905
(dp906
S'A onda de sequestros, a partir de junho de 1995, levou os cariocas a cobrar uma policia mais eficiente e menos corrupta.'
p907
F0.69402209378856705
sS'E as chuvas de fevereiro ajudaram a afundar a popularidade de Marcello, agora parcialmente recuperada.'
p908
F0.41039134083406159
sS'Alem disso, conseguiu trazer para o Rio a primeira fabrica de caminhoes da Volkswagen, o que lhe garantiu grande prestigio com a populacao.'
p909
F0.64549722436790269
sS'"No Rio de Janeiro, entao, o resultado nao e de se estranhar, porque a cidade tem uma tradicao oposicionista intensa.'
p910
F0.38138503569823684
sS'Em uma comparacao com os demais governadores tucanos, ficou bem atras (54%) de Tasso Jereissati (76%) e Eduardo Azeredo (70%), mas saiu-se melhor do que Mario Covas, de Sao Paulo, que teve 47% de avaliacao positiva.'
p911
F0.46056618647183833
sS'A pesquisa JB-Vox Populi feita nos dias 30 e 31 de marco com 697 moradores da capital apontou um indice de 54% de avaliacao positiva do governo do Rio de Janeiro.'
p912
F0.40316210454317569
sS'O diretor do Vox Populi, Marcos Coimbra, chama a atencao para o fato de os eleitores da capital serem mais normalmente mais exigentes e criticos com os governantes do que os do interior.'
p913
F0.41914662181330725
sS'Dois meses depois de amargar a reprovacao de 86% dos cariocas - que o consideraram omisso quando da enchente responsavel pela morte de 67 pessoas -, o governador Marcello Alencar conseguiu recuperar, em parte, a credibilidade junto ao eleitor.'
p914
F0.56033181468052584
sS'Logo no inicio do ano passado, conseguiu do presidente Fernando Henrique Cardoso a promessa de investimentos no Rio, para obras como ampliacao do Porto de Sepetiba e conclusao do metro.'
p915
F0.83405765622829897
sS'O eleitor da capital foi decisivo para eleger Marcello Alencar no segundo turno.'
p916
F0.41931393468876732
ssS'op94ag21-a'
p917
(dp918
S'Os dados da pesquisa Datafolha publicada hoje acerca das intencoes de voto para a eleicao presidencial abrem um novo cenario para o debate politico e ensejam um breve exercicio especulativo acerca do futuro do pais.'
p919
F0.45517926213364857
sS'Ainda que sempre no campo da especulacao, e obvio que uma eventual vitoria de Fernando Henrique no primeiro turno lhe daria um importante capital politico.'
p920
F0.3641785203646149
sS'Assim como ocorre com Lula e Quercia, e de se indagar se Leonel Brizola nao acabara tambem afastado do cenario politico com mais essa derrota o que afetaria duramente o PDT, partido muito mais vinculado a figura do seu caudilho que os outros acima.'
p921
F0.38169314268455723
sS'Seu atual lider, Orestes Quercia, parece caminhar para uma derrota de proporcoes ate surpreendentes.'
p922
F0.34992710611188266
sS'O vasto espectro de apoios que FHC tem recebido vem-se somar a declaracoes do proprio candidato no sentido de sugerir a possibilidade de uma ampla frente, de um governo como que de alianca nacional.'
p923
F0.55426530772542704
sS'Parece esbocar-se assim sempre no caso de manutencao das atuais tendencias um cenario pos-eleicao de enfraquecimento de algumas das principais liderancas politicas dos ultimos anos que nao exclui a possibilidade de uma grande alianca em torno do vencedor.'
p924
F0.48083915575407726
sS'De fato, a manutencao do crescimento da candidatura de Fernando Henrique Cardoso e da queda de Luiz Inacio Lula da Silva comeca a tornar plausivel a hipotese de que a corrida presidencial se encerre ja no primeiro turno.'
p925
F0.5415303610738823
sS'Ha que acrescentar a isso o fato de que nao ha no PT, ate agora, um nome capaz de suceder Lula na lideranca da agremiacao.'
p926
F0.33593550657351262
sS'E claro que essa e uma perspectiva incerta, e a propria ascensao de Fernando Henrique Cardoso alerta para a volatilidade das preferencias pre-eleitorais.'
p927
F0.4103049699311091
sS'Ainda assim, a especulacao faz sentido a medida que nao se vislumbram, ate agora, novos fatos politicos de impacto e que o grande fator diferencial desta campanha, o Plano Real, devera, segundo especialistas, apresentar taxas declinantes de inflacao ao menos ate o proximo mes.'
p928
F0.36393013212130526
ssS'po96jl01-a'
p929
(dp930
S'Qualquer falha na pericia sera coberta com a reconstituicao do cenario do crime e a exumacao dos cadaveres.'
p931
F0.52378492661649723
sS'O som ruidoso da sirene atraiu a atencao dos turistas na principal avenida da orla maritima e quebrou a rotina do local.'
p932
F0.45392064950160188
sS'O sintoma mais claro de que, apesar da resistencia da policia alagoana e da familia Farias a exumacao, Palhares seguira seu metodo e fato de ter trazido os equipamentos necessarios e uma equipe especializada em necropsia.'
p933
F0.47067872433164165
sS'MACEIO - O legista Fortunato Badan Palhares decidiu fazer nova pericia no quarto onde o empresario Paulo Cesar Farias foi assassinado.'
p934
F0.43643578047198484
sS'Um sequito de autoridades, escoltado por agentes da Policia Federal e uma equipe de operacoes especiais da Policia Civil de Maceio - integrada por um comando vestido com roupas pretas, parecidas com a dos ninjas, e homens armados de metralhadoras e fuzis - acompanhou o comboio pelos 25 quilometros do aeroporto ate o Hotel Ponta Verde, na Praia de Pajucara.'
p935
F0.38967480399284349
sS'Palhares devera tambem pedir a exumacao dos cadaveres de PC e de sua namorada, Susana Marcolino.'
p936
F0.47140452079103173
sS'"Nos viemos em missao de paz e vamos fazer um trabalho em harmonia com a policia", disse Palhares, surpreso com a operacao de guerra montada pelo secretario de Seguranca para recebe-lo no aeroporto de Maceio.'
p937
F0.39245875413911152
sS'Ontem a tarde, Palhares examinou as fotografias feitas pelos peritos alagoanos no local do crime e os laudos de balistica, de necropsia, residuografico e do quarto de PC Farias.'
p938
F0.57289189923154626
ssS'po96jl01-b'
p939
(dp940
S'Susana deixou a residencia de sua prima Maria Jose Rosenbaum, em Santo Andre, na Grande Sao Paulo, no dia 20, passando a dormir no apartamento de PC Farias.'
p941
F0.34513424498131667
sS'"Guimaraes disse em seu depoimento que na noite do dia 20 Susana ainda estava hospedada na residencia da sua prima Maria Jose Rosenbaum, em Santo Andre, na Grande Sao Paulo", afirmou Saad Neto, para quem Guimaraes nao realizou a vigilancia encomendada.'
p942
F0.31943828249996992
sS'O dentista, segundo Saad Neto, nao aceitou o convite de Susana para tomar uma champanhe na noite do dia 20.'
p943
F0.29277002188455997
sS'Segundo o delegado Saad Neto, a interrupcao dos contatos do detetive particular Guimaraes com Ferraz indica que PC Farias nao sabia que Susana saiu com o dentista Fernando Colleoni na noite do dia 21, quando foram jantar.'
p944
F0.3595732599803958
sS'O fato foi levantado pelo delegado, a fim de demonstrar que o detetive particular Alceu Alves Guimaraes, contratado pelo empresario Caio Luiz Ferraz do Amaral, a pedido de PC Farias, nao seguiu os passos de Susana em Sao Paulo.'
p945
F0.55994963993013236
sS'Depois da morte de PC Farias, Ferraz ligou para o medico Luiz Farias e o deputado Augusto Cesar Farias (PPB-AL), irmaos de PC Farias, para falar da investigacao solicitada.'
p946
F0.29606845410646954
sS'Guimaraes alegava que os dois agentes contratados para segui-la desapareceram depois da morte de PC Farias e de sua namorada em Maceio.'
p947
F0.29166666666666669
sS'"Ela ligou para Fernando dizendo que estava com uma amiga e perguntou se ele nao queria tomar uma champanhe", disse ontem o delegado titular do 30 Distrito Policial, Naief Saad Neto.'
p948
F0.30151134457776363
sS'"Recebi um informe do detetive no dia 20, dizendo que ate aquele momento nao havia nada que depusse contra a moca.'
p949
F0.38211135158450077
sS'O empresario depos ontem no 30 Distrito Policial do bairro de Tatuape, onde declarou que o detetive particular Guimaraes foi contratado para o servico de acompanhamento duas horas antes de Susana chegar a Sao Paulo, no voo 346 da Varig, proveniente de Maceio, no dia 19.'
p950
F0.39098849550629011
sS'SAO PAULO - Susana Marcolino da Silva fez uma ligacao pessoal para o dentista Fernando Colleoni ainda na noite do dia 20, quinta-feira, convidando-o a passar onde estava hospedada, no apartamento de PC Farias, no bairro do Morumbi.'
p951
F0.37038926633581065
sS'Guimaraes ligou posteriormente para o empresario afirmando que seus agentes pensavam em ir a policia ou a imprensa denunciar o caso.'
p952
F0.45961940777125587
sS'O empresario Caio Luiz Ferraz do Amaral afirmou que contratou a empresa Mega Detetives, de Alceu Alves Guimaraes, para seguir os passos de Susana em Sao Paulo, a pedido pessoal de PC Farias.'
p953
F0.56505793121761327
sS'Saad Neto afirmou ainda que Guimaraes admitiu ter inventado a historia de que Susana estava sendo seguida por outras duas pessoas, alem de dois agentes contratados por ele.'
p954
F0.72015793474792189
sS'Segundo o delegado, o detetive particular declarou em seu depoimento que Colleoni e Susana passaram por dois moteis, mas nao quis dar os nomes dos locais.'
p955
F0.42521003213538061
sS'Liguei para Paulo e ele disse que aguardaria para saber das atividades de Susana depois que ela mudasse para seu apartamento no bairro do Morumbi".'
p956
F0.45584230583855179
sS'Para Ferraz, o detetive Guimaraes pretendia extorquir dinheiro dele, ao ter comentado na ultima sexta-feira, dia 28, a intencao de levar o caso da campana feita junto a Susana para a policia e a imprensa.'
p957
F0.68185296757274227
ssS'po96jl02-a'
p958
(dp959
S'MACEIO - Zelia Maciel, prima de Susana Marcolino, mudou ontem o seu depoimento sobre a compra do revolver que teria sido usado no assassinato de Paulo Cesar Farias.'
p960
F0.68524828886419298
sS'Outra novidade: Zelia diz que o resultado do teste de gravidez, feito no mesmo dia, foi positivo.'
p961
F0.34655164004183603
sS'Depois do teste de gravidez, procurou o amigo Adelmo, que tinha uma arma.'
p962
F0.39629696195060854
sS'O advogado de Zelia, Roberto Marques, disse que sua cliente decidiu "falar tudo o que sabia", depois de uma conversa com ele no domingo.'
p963
F0.35464968280759529
sS'Agora, ela diz que a prima, no dia 14 de junho, fez um teste de gravidez pela manha, antes de passar por dois lugares para tentar comprar uma arma.'
p964
F0.34503277967117713
sS'Gravidez - Marcos fez a autopsia dos corpos de PC Farias e Susana e tambem e o medico responsavel pelo laboratorio do Hospital do Sesi, onde o exame de gravidez foi feito.'
p965
F0.40004734568283146
sS'Susana fez teste de tiro e nao gostou da arma.'
p966
F0.372677996249965
sS'Hoje, o delegado Cicero Torres devera convocar Zelia e Monica Calheiros - que vendeu a arma para Susana - para uma acareacao.'
p967
F0.42808634473904472
sS'Esta e a terceira vez que Zelia muda o seu depoimento, que continua recheado de contradicoes.'
p968
F0.34299717028501769
sS'So depois de efetuar o pagamento e que Susana pediu para testar o revolver.'
p969
F0.35721725415588018
sS'Disse que, na semana que antecedeu a morte de Susana, a prima recebeu um telefonema de sua medica confirmando o resultado positivo.'
p970
F0.36028834606144611
sS'Conselho - Josias disse que Susana deveria ir a uma loja para adquirir a arma e as levou para a Colt 45.'
p971
F0.35424595421603811
ssS'ce94jl11-b'
p972
(dp973
S'Sem levar em conta essa tendencia de queda apontada pelo Seade e Nepo, um relatorio produzido pela ONU (Organizacao das Nacoes Unidas) projeta que em 2010 a cidade de Sao Paulo sera a segunda maior do mundo, perdendo apenas para Toquio e na frente de Bombaim, Xangai, Lagos, Cidade do Mexico, Beijing, Dacar, Nova York e Jacarta, nessa ordem.'
p974
F0.425197473321758
sS'Numeros do Seade (Sistema Estadual de Analises de Dados) mostram que a cidade de Sao Paulo, por exemplo, cresce menos a cada decada.'
p975
F0.40790158272364552
sS'Com excecao dos paises africanos, a taxa de fecundidade no mundo esta diminuindo, com forte tendencia de estabilizacao ou crescimento populacional negativo.'
p976
F0.6546536707079772
sS'De 1980 a 1991, o crescimento anual chegou a 1,15%.'
p977
F0.4213504858001923
sS'Na Africa, a media de fecundidade ainda e de seis filhos por mulher.'
p978
F0.41885390829169555
sS'Segundo Berquo, havera a fixacao das pessoas em cidades medianas que se transformarao em polos de referencia, menores e com menos problemas que as megacidades.'
p979
F0.39192475766909801
sS'Ate o fim do seculo o mundo vai assistir ao fenomeno da "desmetropolizacao", ou seja, a tendencia desta decada sera a desconcentracao populacional das metropoles.'
p980
F0.42884501393511798
sS'Na Franca, a media de fecundidade e de 1,3 filho por mulher.'
p981
F0.43355498476206006
sS'Uma das razoes para a guinada na expectativa de crescimento, na opiniao de Elza Berquo, diretora do Nepo (Nucleo de Estudos de Populacao da Unicamp), e a busca macica, por parte dos habitantes dos grandes centros urbanos, de uma qualidade de vida melhor da que oferecem as metropoles.'
p982
F0.71720421425485259
sS'No caso especifico do Brasil, a expectativa dos cientistas e que a partir de 2020 o pais va ter seu crescimento populacional estabilizado e, por volta de 2050, essa taxa chegara a zero.'
p983
F0.42333824586679353
ssS'ce94jl11-c'
p984
(dp985
S'O que acontecera no ano 2000 e depois tem sido tema para escritores, economistas, politicologos e cineastas.'
p986
F0.3877833671647406
sS'Verne concentrou-se na evolucao da tecnologia e os desenvolvimentos que tematizou concretizaram-se antes do que se previa.'
p987
F0.34412360080584259
sS'No entanto, as tres obras de antecipacao mais discutidas pertencem ao que poderiamos chamar de ficcao cientifico-politica.'
p988
F0.47387910220727386
sS'So que Enzensberger escreveu de fato seu texto em 1987, enquanto Ceausescu foi morto em fins de 1989.'
p989
F0.39641248358604592
sS'Nao e a toa, portanto, que os livros dedicados a recontar a historia de acordo com novas teorias e conhecimentos "O Nome da Rosa" de Umberto Eco, ou "Memorias de Adriano" de Marguerite Yourcenar obtiveram mais sucesso que obras profeticas e/ou especulativas.'
p990
F0.5282214092053229
sS'A reportagem refere-se tambem as ruinas do muro de Berlim e a abolicao do tabagismo nos EUA.'
p991
F0.33494531740415406
sS'No Caucaso e na Africa Central o que esta ocorrendo e um renascimento do neolitico ou talvez do paleolitico, com guerras tribais de todos contra todos, como ja dizia, seculos atras, Thomas Hobbes.'
p992
F0.38359763704583366
sS'A primeira delas e "Nos" do russo Ievgueni Zamiatin que, por sua vez, inspirou as duas outras, "Admiravel Mundo Novo", de Aldous Huxley, e "1984", de George Orwell, ambos autores ingleses.'
p993
F0.43094580368566737
sS'Hiroshima e Nagasaki, em 1945, realimentaram a ficcao-cientifica com o elemento central da ansiedade do primeiro milenio, pois a Bomba transformara, durante a Guerra Fria, o apocalipse numa possibilidade real.'
p994
F0.331133089266261
sS'O reporter americano que a escreve fala de Ceausescu, o ditador comunista da Romenia: "Aquele velho gangster demoliu o que pode, ate ser morto a tiros por seu proprio pessoal".'
p995
F0.37851664930511258
sS'Meio milenio mais tarde, a cristandade comecou sua conquista do mundo rebatizando-se aos poucos de Ocidente e impondo seu calendario.'
p996
F0.34016802570830446
sS'As previsoes mais exatas, contudo, foram recentemente realizadas nao por um futurologo profissional nem por um roteirista hollywoodiano, mas pelo poeta e ensaista alemao Hans Magnus Enzensberger.'
p997
F0.33866700533384142
sS'O ano 1000 da era crista foi comemorado apenas numa pequena regiao do planeta, por uma fracao reduzida da humanidade.'
p998
F0.34462781148036764
sS'A viagem a lua de Wells tambem e coisa do passado.'
p999
F0.40771775315010045
sS'O passado, alias, tornou-se no seculo 20 um assunto muito mais palpitante do que o futuro, principalmente porque a arqueologia produziu mais novidades do que a politica ou a ciencia.'
p1000
F0.41403933560541251
sS'Seu pano de fundo era o totalitarismo e todas se mostravam profundamente pessimistas.'
p1001
F0.32816506165694681
sS'O posfacio ao seu "A Outra Europa" e uma reportagem ficcional extraida do "The New New Yorker" de 21 de fevereiro de 2006.'
p1002
F0.49530906473585529
ssS'ce94jl11-a'
p1003
(dp1004
S'Os apocalipticos sao compostos por uma horda de fieis intitulada "evangelicos", que inclui membros de igrejas como a Presbiteriana, Batista, Metodista, Assembleia de Deus, Deus e Amor e Universal do Reino de Deus.'
p1005
F0.67522370490951555
sS'Uma legiao que varia entre 30 e 35 milhoes de fieis brasileiros acredita que o juizo final, ou o dia do apocalipse, pode acontecer entre hoje e o ano 2000.'
p1006
F0.69944144060884073
sS'No inicio do ano, ele enviou ao Brasil 50 discipulos que se hospedaram no Othon Palace Hotel, em Sao Paulo.'
p1007
F0.68516015970314881
sS'Assim como ela, ha membros de seitas que esperam o fim do mundo para qualquer hora, a partir de agora.'
p1008
F0.39477101697586137
sS'Esse coro, suficiente para lotar 185 Maracanas, e estimado por entidades tao diversas como o Instituto Brasileiro de Geografia e Estatistica (IBGE) e o Instituto Cristao de Pesquisas (ICP).'
p1009
F0.49339866816116573
sS'Olhos azuis, vestida de branco como uma freira, trazendo em punho um megafone de ultima geracao, ela distribuiu santinhos de metal dourado, na intencao de salvar os paulistanos do "mal".'
p1010
F0.42857142857142855
sS'Considerada uma das caracteristicas do nosso "espirito de epoca", essa crenca no fim do mundo nasceu de multiplas leituras que os fieis fizeram de axiomas biblicos, retirados sobretudo dos textos de Mateus, Habacuque e do Livro dos Proverbios.'
p1011
F0.40522044923655387
sS'"A unica forma de salvacao seria rezar um rosario mais de 40 vezes por dia", diz Maria de Lourdes, que prega carregando um retrato de Nossa Senhora.'
p1012
F0.38557015416950391
sS'Passaram 100 dias no Brasil distribuindo a obra "1994", um calhamaco de 556 paginas, que pode ser encontrado em qualquer livraria da cidade.'
p1013
F0.44232586846469141
sS'Segundo pesquisador Paulo Romeiro, do Instituto Cristao de Pesquisas, a diversidade de datas e meios pelo qual vira o juizo final reside em varias interpretacoes do capitulo 4o, versiculo 18, onde se faz mencao a vinda da "luz", que arrebatara os fieis aos ceus.'
p1014
F0.38851434494290565
ssS'in96ju19-a'
p1015
(dp1016
S'Ambos sao produtos das hierarquias sovieticas - Yeltsin, do Partido Comunista; Lebed, da elite de paraquedistas do Exercito.'
p1017
F0.3227486121839514
sS'Em troca, em plena campanha eleitoral, foi nomeado assessor de seguranca nacional e secretario do Conselho de Seguranca, que assessora a presidencia em questoes de defesa.'
p1018
F0.66421116415507142
sS'Em 1993 liderou uma frustrada tentativa de golpe em Moscou e acabou na cadeia, de onde saiu mais tarde.'
p1019
F0.3273268353539886
sS'Mas nao o indicou como vice-presidente, cargo que o colocaria direto na linha do poder caso o presidente nao consiga concluir o mandato.'
p1020
F0.61649620239508984
sS'Mas Lebed, do alto de 11 milhoes de votos, desfruta de uma posicao mais confortavel do que a de Rutskoi.'
p1021
F0.44280744277004758
sS'E, de quebra, ainda conseguiu a cabeca do ministro da Defesa, Pavel Grachev, seu antigo desafeto.'
p1022
F0.30860669992418382
sS'Cairam igualmente em desgraca, Yeltsin quando deixou o Politburo para seguir carreira politica, em 1987, e Lebed em 1995, quando o entao ministro da Defesa, Pavel Grachev, o destituiu do comando do 14 Exercito.'
p1023
F0.32732683535398854
sS'Os dois homens nao se assemelham apenas na aparencia, um tanto rispida e grosseira.'
p1024
F0.3273268353539886
sS'A grande incognita da alianca de ocasiao entre Yeltsin e Lebed e saber se o presidente esta disposto a dar poder suficiente ao general para satisfazer suas ambicoes politicas, que nao sao pequenas.'
p1025
F0.4780914437337575
sS'Durante a campanha, referiu-se a Yeltsin como "um homem velho e nao muito saudavel que ja fez o que podia".'
p1026
F0.30618621784789729
sS'Mas a escolha se mostrou desastrosa - Rutskoi foi excluido das decisoes de governo pelos assessores liberais do Kremlin, e se vingou denunciando as reformas economicas do presidente.'
p1027
F0.38273277230987152
sS'Um risco que corre o general novato em politica e o de que, ja de olho na proxima eleicao, ele passe a cuidar de sua propria agenda politica, deixando de lado a de Yeltsin.'
p1028
F0.37904902178945171
sS'Mas deve estar clara, na cabeca de Lebed, as dificuldades de relacionamento de Yeltsin com seu vice anterior, o tambem general Alexander Rutskoi.'
p1029
F0.40204220056417311
sS'Horas depois de nomeado, acusou Grachev de ter planejado um golpe contra Yeltsin e revelou que alguns generais, descontentes com a demissao, haviam iniciado uma rebeliao, imediatamente contornada.'
p1030
F0.30988989340045608
ssS'in96ab30-a'
p1031
(dp1032
S'Mais adiante, reconheceu nao ter lido o livro, mas um resumo, insistindo porem em argumentos como o do numero de mortos no campo de concentracao de Auschwitz, onde se afirmou inicialmente que houve 4 milhoes de vitimas, numero corrigido posteriormente para 1 milhao; mesmo considerando que "a abominacao e a mesma", o abade sustenta haver ai uma demonstracao de que o tema deve ser objeto de investigacao imparcial.'
p1033
F0.44343984582885188
sS'O Abade Pierre foi chamado a explicacoes na Liga contra o Racismo.'
p1034
F0.37582301400141449
sS'Mas o fato e que, relativizacao, revisao ou negacao, o que escreve Garaudy e passivel, na Franca, das penas da lei Gayssot, que no seu caso foi invocada pelo Movimento Contra o Racismo e pela Amizade entre os Povos.'
p1035
F0.56742576821516577
sS'PARIS - Esta em ponto de ebulicao na Franca a polemica provocada pelo apoio do Abade Pierre, considerado o homem mais popular do pais, a seu velho amigo o filosofo Roger Garaudy - ex-comunista e ex-catolico convertido ao islamismo - em torno das teses de revisao do Holocausto que este sustenta em seu livro Os Mitos fundadores da politica israelense.'
p1036
F0.45939798827150624
sS'A simpatia hipotecada pelo sacerdote ao polemista - e nao necessariamente a todo o conteudo de suas teses - repercutiu mal no momento em que Garaudy e processado com base na lei que pune a negacao de crimes contra a humanidade, e semeou a confusao na comunidade judaica e na opiniao publica.'
p1037
F0.49961464348803203
sS'Onde a porca torceu o rabo, no entanto, foi na intervencao do Abade Pierre, o homem que espalhou pelo mundo as Comunidades de Emaus, que ensinou os franceses a pensarem mais nos pobres, que renunciou a fortuna pessoal, ajudou judeus a escaparem para a Suica durante a Segunda Guerra e e membro da Liga Contra o Racismo e o Anti-semitismo (Licra).'
p1038
F0.49774732042367265
sS'Recuou, disse que nao entra no merito do livro nem apoia suas teses, mas repisou o argumento da integridade intelectual de Garaudy e da necessidade de debater livremente este tema.'
p1039
F0.53585313682692781
ssS'ce94jl10-a'
p1040
(dp1041
S'A autoconfianca, que e um fator altamente positivo, aliada a ansiedade pode provocar um desastre.'
p1042
F0.43835700375960462
sS'Sao inumeras as variaveis para se garantir o sucesso de um empreendimento: capital, a nova ideia, o ponto, a experiencia anterior, o nicho, o grau de inovacao, o nivel de diferenciacao, a forma de atendimento, o horario de funcionamento, o "timing" para entrada no negocio, o volume de trabalho despendido, a equipe e muito mais.'
p1043
F0.88746439484025563
sS'So existe uma coisa pior do que a falta de experiencia: um empreendedor desprovido de conhecimento anterior basico para o novo negocio, mas com capital.'
p1044
F0.40061680838488767
sS'O capitalismo tem proporcionado oportunidades para pessoas que desejam entrar, de alguma forma, no mundo dos negocios.'
p1045
F0.44280744277004769
sS'O que deve ser lembrado e que cada caso e um caso e nao existe receita de sucesso.'
p1046
F0.3779644730092272
sS'Em ja havendo o sonho, a experiencia e a principal peca para o acerto ou, pelo menos, para minimizar o insucesso.'
p1047
F0.56081737582947455
sS'Inexperiencia, somada a capital, nao e garantia de exito.'
p1048
F0.47140452079103162
sS'A partir dai, entra-se no processo de dominar a ansiedade, que, na maioria das vezes, determina o insucesso do empreendimento pela incapacidade de uma analise mais detida sobre o assunto.'
p1049
F0.43938802910487179
ssS'op94ab06-a'
p1050
(dp1051
S'Havia ligeiras esperancas de que isso poderia ser corrigido por um dos poucos dispositivos lucidos, o artigo 3o das Disposicoes Transitorias, que permite que apos cinco anos a revisao da Constituicao.'
p1052
F0.46563592732607822
sS'Tem que ter experiencia provada e imaginacao alerta para os problemas da sua regiao e do pais.'
p1053
F0.55059776128934823
sS'Isso tambem foi perdido, pela confusao infinita que domina o governo Itamar Franco e pela necessidade de criar-se o Fundo Social de Emergencia.'
p1054
F0.52595470574035319
sS'Estavamos convencidos entao e mais convencidos agora que nao ha como produzir uma Constituicao, isto e uma lei majestosa e permanente, que prescreva os direitos individuais, garanta o direito de propriedade, determine a organizacao do Estado e do governo e limite a amplitude da legislacao ordinaria numa assembleia que imediatamente apos sua conclusao vai legislar ordinariamente.'
p1055
F0.44108976998473359
sS'O constituinte tem que ser eleito para um fim especifico.'
p1056
F0.99999999999999978
sS'Hoje nao nos resta outra alternativa senao lutar por uma Constituinte exclusiva, construida na base rigorosa de "um homem um voto" (com o minimo de um para os Estados que nao atinjam o quociente eleitoral) e que nao tenha mais do que 100 representantes escolhidos diretamente pelo povo.'
p1057
F0.64408732703608196
ssS'op94ag14-b'
p1058
(dp1059
S'Nao e a Inglaterra que gasta demais; e o Brasil que gasta de menos.'
p1060
F0.49852724275079074
sS'A conclusao a que se chega a partir de todos esses numeros e que, mesmo onde ha muitos recursos, a obediencia a regra da prioridade e essencial.'
p1061
F0.43737401684069538
sS'A saude e como o cometa: o tema aparece a cada quatro anos na boca de todos os candidatos.'
p1062
F0.52636135596781519
sS'A Inglaterra, que tem 55 milhoes de habitantes, gasta US$ 51 bilhoes.'
p1063
F0.56949479745149945
sS'No Brasil, um doente internado custa, em media, R$ 150,00 por dia, mas o Inamps paga apenas R$ 3,50.'
p1064
F0.4114755998989118
sS'Nao e a toa que diminui a cada dia o numero de hospitais conveniados com o Inamps.'
p1065
F0.48651277256732783
sS'Nos que temos 150 milhoes de habitantes gastamos US$ 8 bilhoes.'
p1066
F0.44611343738694875
sS'Afinal, a saude custa caro em qualquer parte do mundo.'
p1067
F0.59761430466719678
sS'O Canada gasta 8,5%; a Alemanha, 8,2%; o Japao, a Australia e a Italia, 7%; a Inglaterra, 6%.'
p1068
F0.7669649888473703
sS'A hipertensao, na Inglaterra, so passa a merecer a atencao dos medicos quando a minima chega a dez sabendo-se que o limite e nove.'
p1069
F0.49009802940980346
ssS'op94ab03-b'
p1070
(dp1071
S'Para eles, os problemas da patria nao merecem regime de urgencia.'
p1072
F0.25784831403931502
sS'E ai, chega outra vez a hora de nos prepararmos para as festas de Natal e Ano Bom, pois ninguem e de ferro... Para quem nao gosta de trabalhar, este ano de 1994 e um prato cheio.'
p1073
F0.46195657812238883
sS'Por essa razao, "enrolar" a revisao tem sido a palavra de ordem que os gigolos de partidos vem passando aos seus vassalos.'
p1074
F0.33543158962793213
sS'Os interesses pessoais falam mais alto do que a estabilizacao da moeda, a retomada do desenvolvimento, a criacao de empregos etc.'
p1075
F0.67556602366656759
sS'Tudo ira para o espaco.'
p1076
F0.30779350562554619
sS'Mais tarde, a retomada passou para o Carnaval.'
p1077
F0.25724787771376323
sS'Com um agravante: se vencermos, serao mais uns dez ou 15 dias para as celebracoes e comentarios; se perdermos, outros tantos para amargar a derrota e fazer as criticas.'
p1078
F0.25993762245501817
ssS'mu94de21-a'
p1079
(dp1080
S'A economia mundial continuara crescendo tanto no ano que vem como ate o final do seculo, mas tera que conviver com "alto desemprego", diz o relatorio de final de ano da OCDE (Organizacao para a Cooperacao e o Desenvolvimento Economico, o clube dos 25 paises mais industrializados do mundo).'
p1081
F0.5595618158751382
sS'A perspectiva e de que o mundo rico entre no ano 2000 com deficit medio na faixa de 1,75% de seu PIB (Produto Interno Bruto, medida da renda nacional).'
p1082
F0.36430604443134978
sS'No curto prazo, a situacao do emprego e ainda mais complicada: a reducao no percentual de desempregados, entre 94 e 96, sera de magro 0,5 ponto percentual, apesar dos dois anos de crescimento previstos.'
p1083
F0.3519947346980235
sS'Melhores, inclusive, no que diz respeito a inflacao, que se mantera sob controle ate o final do seculo.'
p1084
F0.52623481158421759
sS'Embora a perspectiva seja a de que as economias de seus 25 membros entrem no proximo seculo com um crescimento medio de 3% do Produto Interno Bruto, o desemprego ainda estara, na media, em torno de 7% da forca de trabalho.'
p1085
F0.52044724553163357
sS'Os Estados Unidos parecem ter atingido o pico de sua ascensao, com o crescimento de 3,9% esperado para 94.'
p1086
F0.36408195970525759
sS'Ja o Japao atinge o pico em 96, com 3,4%, apos pular de 1% este ano para 2,5% em 95.'
p1087
F0.45621275880976087
ssS'mu94de22-a'
p1088
(dp1089
S'Caso os partidos de oposicao e a liga votem unidas, a mocao de desconfianca sera aprovada.'
p1090
F0.70710678118654746
sS'O Parlamento italiano comecou ontem a discutir o futuro do governo liderado pelo primeiro-ministro Silvio Berlusconi.'
p1091
F0.7745966692414834
sS'Em seu discurso, o premie disse que a convocacao de eleicoes antecipadas e o caminho "obrigatorio" caso a coalizao perca a maioria.'
p1092
F0.75192061774140451
sS'Segundo Cesare Previtti, ministro da Defesa e coordenador do partido de Berlusconi, o primeiro-ministro vai renunciar antes de a confianca em seu governo ser submetida ao Parlamento.'
p1093
F0.56698174407030966
sS'O premie de 58 anos disse em seu discurso que as tres mocoes de censura apresentadas sao uma "zombaria" com e uma fraude contra os eleitores.'
p1094
F0.50097943286811952
sS'Na resposta, Bossi oficializou o rompimento de seu partido com o governo e disse que a liga tem o dever de "por fim a Primeira Republica italiana".'
p1095
F0.48361941016437082
sS'Caso o premie renuncie cabera ao presidente escolher um novo chefe de governo ou convocar eleicoes.'
p1096
F0.50311529493745266
sS'Bossi lidera a federalista Liga Norte, partido que integra a coalizao Polo da Liberdade e do Bom Governo, mas apresentou mocao de desconfianca contra o governo.'
p1097
F0.65033247714308984
sS'Aliado de Berlusconi na eleicao que levou o empresario a chefia do governo italiano, Bossi reagiu ao discurso afirmando que seu partido havia esperado ate o momento certa para tentar derrubar o governo.'
p1098
F0.62528633500109243
sS'As interrupcoes levaram a presidente da casa, Irene Pivetti, a suspender a sessao tres vezes e a expulsar o deputado governista Gian Piero Broglia do plenario.'
p1099
F0.74754500159640203
ssS'op94ag10-a'
p1100
(dp1101
S'So entao saberemos se manipular a taxa de cambio nominal pelo diferencial de juros interno e externo e esperar que a taxa de cambio real se ajuste pela reducao dos precos internos foi uma aposta sustentavel.'
p1102
F0.45392064950160188
sS'A fantastica acumulacao de reservas internacionais (no conceito de caixa) nos ultimos 29 meses (janeiro de 1992 a maio de 1994) da ordem de 30 bilhoes de dolares deveu-se praticamente ao movimento de capitais estimulado pela maior taxa de juro real de que se tem noticia no mundo civilizado.'
p1103
F0.74392462580451946
sS'Tudo isso a custa da manutencao de ampla capacidade ociosa e desemprego para milhoes de brasileiros...'
p1104
F0.54006172486732174
sS'Nos ultimos seis anos (1988-1993) tivemos um saldo positivo em transacoes correntes da ordem de 6,7 bilhoes de dolares, praticamente construido pelas remessas unilaterais de brasileiros que estao trabalhando no exterior e que atingiram a 6,4 bilhoes de dolares no periodo.'
p1105
F0.60794808560844238
sS'Um dos aspectos positivos da atual politica cambial reside no fato de ela nao pretender envolver-se na defesa de uma taxa de cambio real potencialmente insustentavel a longo prazo.'
p1106
F0.47951222381615638
sS'Provavelmente teremos no mercado de bens e servicos um aumento do nivel de atividade (o que e desejavel), que retirara um dos estimulos as exportacoes e elevara o nivel das importacoes (o que tambem e saudavel).'
p1107
F0.48164668357297225
sS'Entre 1988 e 1993, com um Produto Interno Bruto revelando um crescimento medio da ordem de 0,8% e uma ampla capacidade ociosa no setor industrial, nossas exportacoes cresceram a uma taxa de apenas 2,8% ao ano, enquanto as exportacoes mundiais cresciam a 6,2% ao ano.'
p1108
F0.51273011862012674
sS'O saldo exagerado da balanca comercial foi reduzido de 19,2 bilhoes de dolares, em 1988, para 13,1 bilhoes, em 1993.'
p1109
F0.5222329678670935
ssS'po96fe26-a'
p1110
(dp1111
S'Por isso, tambem com tranquilidade, o general Gomes apoia totalmente a segunda e futura etapa dos trabalhos da comissao - tentativa de localizacao dos corpos - por "estar na lei de indenizacao dos desaparecidos.'
p1112
F0.37688918072220451
sS'PORTO ALEGRE - A Comissao Especial dos Desaparecidos Politicos, que tera sua quarta reuniao na quinta-feira quando ira estudar 20 novos casos, esta reescrevendo para a Historia do Brasil as paginas mais obscuras da ditadura militar de 64: as das torturas, mortes e dos desaparecidos.'
p1113
F0.42857142857142855
sS'Ao reescrevermos essa parte da Historia brasileira, estamos resgatando a credibilidade sobre o conceito publico de civilidade e dando o exemplo as novas geracoes.'
p1114
F0.44376015698018328
sS'Suzana Lisboa, 44 anos, representante na comissao dos parentes de desaparecidos, confessa "imensa emocao" que ja a fez chorar nas reunioes, por ver "restabelecida a verdade historica que as familias vem denunciando ha tanto tempo, mostrando que a versao oficial sobre supostos atropelamentos, tiroteios ou suicidios era mentirosa".'
p1115
F0.4389381125701739
sS'Ate 9 de maio a comissao, instalada no predio Anexo II do Ministerio da Justica, estara recebendo novos pedidos de indenizacao de familias de mortos e desaparecidos, cifras que variam de R$ 100 mil a R$ 150 mil.'
p1116
F0.40216706883393655
sS'O presidente da comissao, Miguel Reale Jr, 52 anos, destaca que "o regime militar autorizou e deu guarida a todas as violencias, mesmo quando a versao oficial era mentirosa, ate bisonha.'
p1117
F0.44312936752559784
ssS'in96fe08-a'
p1118
(dp1119
S'Em Hamburgo, o proprietario da agencia de viagens Oeger Tours, Vural Oeger, disse estar informado de que as condicoes meteorologicas eram extremamente desfavoraveis no momento da decolagem, e que o aparelho "foi muito provavelmente atingido por um raio", que paralisou suas duas turbinas.'
p1120
F0.49935022714588739
sS'Em Frankfurt, Oliver Will, diretor da associacao Cockpit (Cabine), de aeronautas alemaes, afirmou que o acidente "e um exemplo tipico de linhas aereas exoticas que entram nos mercados alemaes sem que estes conhecam seus padroes de seguranca".'
p1121
F0.42776356465127841
sS'O aviao caiu numa area infestada de tubaroes, onde ontem as ondas se elevavam a mais de tres metros.'
p1122
F0.56736651461358023
sS'O aparelho, da empresa turca Birgen-Air, fretado pela agencia alema Oeger Tours, transportava 176 passageiros, todos alemaes, com uma possivel excecao de dois deles, que seriam poloneses.'
p1123
F0.44905020936970891
sS'Investigacoes - Depois de ter emitido uma nota segundo o qual o Boeing nao estava segurado - o que significa que nao tinha condicoes de voo -, o Ministerio dos Transportes da Alemanha retificou essa informacao, quando a Oeger Tours apresentou as apolices de seguro.'
p1124
F0.52556144622640544
sS'Tecnicos alemaes partiram ontem para a Republica Dominicana, para participar das investigacoes sobre as causas do acidente, um dos maiores da decada.'
p1125
F0.45927932677184591
sS'No aeroporto de Schoenefelf, em Berlim, os parentes dos passageiros, desesperados com as noticias do acidente e a impossibilidade de haver sobreviventes, tiveram a sua disposicao uma sala especial onde, isolados da imprensa e dos curiosos, eram atendidos por medicos, psicologos e religiosos.'
p1126
F0.43270549170676298
sS'Em 1994, a queda de um Airbus da China Airlines, de Formosa, causou 264 mortes nas imediacoes do aeroporto de Nagoia, no Japao.'
p1127
F0.43515852932675148
sS'Segundo a Forca Aerea Dominicana, que esta sendo ajudada nos trabalhos de resgate por unidades da Guarda Costeira dos Estados Unidos, nada indica que tenham havido sobreviventes.'
p1128
F0.41522739926869984
ssS'op94ab21-a'
p1129
(dp1130
S'Ha hoje o consenso de que e preciso substituir o Estado empresario por um Estado voltado para o social.'
p1131
F0.39310792944052481
sS'A reforma tributaria, com a redistribuicao de encargos entre a Uniao, Estados e municipios, tambem nao foi debatida.'
p1132
F0.37300192329612553
sS'E dramatico tambem ver passar a oportunidade de se fazer uma reforma profunda na Previdencia Social.'
p1133
F0.33678765702728169
sS'A revisao seria o momento para que temas importantes para o pais como os monopolios estatais, a reforma tributaria e a reforma da Previdencia tres discussoes inadiaveis fossem abordados.'
p1134
F0.40389034790078004
sS'E a revisao constitucional de hoje e ainda a grande oportunidade para se adaptar o nosso Estado aos novos tempos.'
p1135
F0.4923659639173309
sS'A perspectiva que se apresenta de a revisao constitucional se encerrar sem ter votado uma so questao economica importante e realmente dramatica.'
p1136
F0.51068823085695103
sS'O Estado brasileiro precisa de uma reforma urgente e a hora e agora.'
p1137
F0.37686733144071588
ssS'in96fe15-a'
p1138
(dp1139
S'Nesse ciberlocal, o objetivo e ajudar os apaixonados a manter a chama do amor acesa.'
p1140
F0.34299717028501769
sS'No Palacio do amor de Afrodite (http://www.purple.co.uk/purplet/love.html), alem de ligacoes para varias outras paginas regidas pelo Cupido, os enamorados encontram, entre muitos desenhos melosos e apaixonados, musicas, poemas, cartoes, dicas para mimar os amantes e arquivos com sons de varios tipos de beijo (french kiss, cyberkiss, english french kiss), alem de uma proposta de casamento on-line, em que basta preencher seu nome e nome do futuro conjuge.'
p1141
F0.43559720444291183
sS'A cerimonia, realizada atraves da rede Compuserve, foi abencoada e oficializada - via computador, e claro - por um padre de uma igreja em Beverly Hills, tambem na California.'
p1142
F0.36740471675703457
sS'Os americanos Joseph Perling e Victoria Vaughn aceitaram o desafio e se tornaram pioneiros do sacramento on line.'
p1143
F0.30714755841697561
sS"Na grande rede de computadores que interliga pessoas no mundo todo, o amor e o odio estao presentes, por isso, ontem, dia de Sao Valentim (Valentine's Day), em que se comemora o dia dos namorados em varios paises do Hemisferio Norte, a grande rede abriu espaco para os apaixonados."
p1144
F0.36465258274943624
sS'Valentim, um bispo estudioso, entrou para a historia como um protetor dos jovens, aos quais ajudava a escrever cartas de amor.'
p1145
F0.45883146774112349
sS"Na pagina Valentine's Day (http://www.nando.net/toys/valentine.html) ha dados curiosos sobre o dia de Sao Valentim, santo decapitado por um imperador romano no dia 14 de fevereiro de 269."
p1146
F0.28988551782622418
sS'Neles, pode-se comprar chocolate, vinho, lingeries, enviar cartoes e ate pedir o ser amado em casamento pela rede, de modo publico ou nao.'
p1147
F0.27975144247209416
sS'Ontem, em pleno dia dos namorados nos EUA, eles disseram sim e juraram fidelidade eterna via Internet - ele, de seu laptop em Venice Beach, na California; ela de seu terminal em Hollywood, no mesmo estado.'
p1148
F0.50631775617836383
ss.